
riscv64.out:     file format elf64-littleriscv


Disassembly of section .text:

00000000000100e8 <exit>:
   100e8:	1141                	add	sp,sp,-16
   100ea:	4581                	li	a1,0
   100ec:	e022                	sd	s0,0(sp)
   100ee:	e406                	sd	ra,8(sp)
   100f0:	842a                	mv	s0,a0
   100f2:	3aa000ef          	jal	1049c <__call_exitprocs>
   100f6:	7501b503          	ld	a0,1872(gp) # 146a8 <_global_impure_ptr>
   100fa:	6d3c                	ld	a5,88(a0)
   100fc:	c391                	beqz	a5,10100 <exit+0x18>
   100fe:	9782                	jalr	a5
   10100:	8522                	mv	a0,s0
   10102:	438020ef          	jal	1253a <_exit>

0000000000010106 <register_fini>:
   10106:	00000793          	li	a5,0
   1010a:	c789                	beqz	a5,10114 <register_fini+0xe>
   1010c:	6541                	lui	a0,0x10
   1010e:	7e450513          	add	a0,a0,2020 # 107e4 <__libc_fini_array>
   10112:	a1b1                	j	1055e <atexit>
   10114:	8082                	ret

0000000000010116 <_start>:
   10116:	00004197          	auipc	gp,0x4
   1011a:	e4218193          	add	gp,gp,-446 # 13f58 <__global_pointer$>
   1011e:	77818513          	add	a0,gp,1912 # 146d0 <__malloc_max_total_mem>
   10122:	00004617          	auipc	a2,0x4
   10126:	63660613          	add	a2,a2,1590 # 14758 <__BSS_END__>
   1012a:	8e09                	sub	a2,a2,a0
   1012c:	4581                	li	a1,0
   1012e:	1ac000ef          	jal	102da <memset>
   10132:	00000517          	auipc	a0,0x0
   10136:	42c50513          	add	a0,a0,1068 # 1055e <atexit>
   1013a:	c519                	beqz	a0,10148 <_start+0x32>
   1013c:	00000517          	auipc	a0,0x0
   10140:	6a850513          	add	a0,a0,1704 # 107e4 <__libc_fini_array>
   10144:	41a000ef          	jal	1055e <atexit>
   10148:	128000ef          	jal	10270 <__libc_init_array>
   1014c:	4502                	lw	a0,0(sp)
   1014e:	002c                	add	a1,sp,8
   10150:	4601                	li	a2,0
   10152:	0ce000ef          	jal	10220 <main>
   10156:	bf49                	j	100e8 <exit>

0000000000010158 <__do_global_dtors_aux>:
   10158:	1141                	add	sp,sp,-16
   1015a:	e022                	sd	s0,0(sp)
   1015c:	7a01c783          	lbu	a5,1952(gp) # 146f8 <completed.1>
   10160:	e406                	sd	ra,8(sp)
   10162:	ef91                	bnez	a5,1017e <__do_global_dtors_aux+0x26>
   10164:	00000793          	li	a5,0
   10168:	cb81                	beqz	a5,10178 <__do_global_dtors_aux+0x20>
   1016a:	654d                	lui	a0,0x13
   1016c:	71c50513          	add	a0,a0,1820 # 1371c <__EH_FRAME_BEGIN__>
   10170:	00000097          	auipc	ra,0x0
   10174:	000000e7          	jalr	zero # 0 <exit-0x100e8>
   10178:	4785                	li	a5,1
   1017a:	7af18023          	sb	a5,1952(gp) # 146f8 <completed.1>
   1017e:	60a2                	ld	ra,8(sp)
   10180:	6402                	ld	s0,0(sp)
   10182:	0141                	add	sp,sp,16
   10184:	8082                	ret

0000000000010186 <frame_dummy>:
   10186:	00000793          	li	a5,0
   1018a:	cb91                	beqz	a5,1019e <frame_dummy+0x18>
   1018c:	654d                	lui	a0,0x13
   1018e:	7a818593          	add	a1,gp,1960 # 14700 <object.0>
   10192:	71c50513          	add	a0,a0,1820 # 1371c <__EH_FRAME_BEGIN__>
   10196:	00000317          	auipc	t1,0x0
   1019a:	00000067          	jr	zero # 0 <exit-0x100e8>
   1019e:	8082                	ret

00000000000101a0 <print_str>:
   101a0:	7159                	add	sp,sp,-112
   101a2:	f406                	sd	ra,40(sp)
   101a4:	f022                	sd	s0,32(sp)
   101a6:	1800                	add	s0,sp,48
   101a8:	fca43c23          	sd	a0,-40(s0)
   101ac:	e40c                	sd	a1,8(s0)
   101ae:	e810                	sd	a2,16(s0)
   101b0:	ec14                	sd	a3,24(s0)
   101b2:	f018                	sd	a4,32(s0)
   101b4:	f41c                	sd	a5,40(s0)
   101b6:	03043823          	sd	a6,48(s0)
   101ba:	03143c23          	sd	a7,56(s0)
   101be:	fd840793          	add	a5,s0,-40
   101c2:	fef43423          	sd	a5,-24(s0)
   101c6:	fe843783          	ld	a5,-24(s0)
   101ca:	639c                	ld	a5,0(a5)
   101cc:	853e                	mv	a0,a5
   101ce:	236000ef          	jal	10404 <puts>
   101d2:	fe843783          	ld	a5,-24(s0)
   101d6:	03078793          	add	a5,a5,48
   101da:	fef43423          	sd	a5,-24(s0)
   101de:	fe843783          	ld	a5,-24(s0)
   101e2:	639c                	ld	a5,0(a5)
   101e4:	853e                	mv	a0,a5
   101e6:	21e000ef          	jal	10404 <puts>
   101ea:	fe843783          	ld	a5,-24(s0)
   101ee:	07a1                	add	a5,a5,8
   101f0:	fef43423          	sd	a5,-24(s0)
   101f4:	fe843783          	ld	a5,-24(s0)
   101f8:	639c                	ld	a5,0(a5)
   101fa:	853e                	mv	a0,a5
   101fc:	208000ef          	jal	10404 <puts>
   10200:	fe843783          	ld	a5,-24(s0)
   10204:	07a1                	add	a5,a5,8
   10206:	fef43423          	sd	a5,-24(s0)
   1020a:	fe843783          	ld	a5,-24(s0)
   1020e:	639c                	ld	a5,0(a5)
   10210:	853e                	mv	a0,a5
   10212:	1f2000ef          	jal	10404 <puts>
   10216:	0001                	nop
   10218:	70a2                	ld	ra,40(sp)
   1021a:	7402                	ld	s0,32(sp)
   1021c:	6165                	add	sp,sp,112
   1021e:	8082                	ret

0000000000010220 <main>:
   10220:	7179                	add	sp,sp,-48
   10222:	f406                	sd	ra,40(sp)
   10224:	f022                	sd	s0,32(sp)
   10226:	1800                	add	s0,sp,48
   10228:	67c9                	lui	a5,0x12
   1022a:	6f078793          	add	a5,a5,1776 # 126f0 <__errno+0x8>
   1022e:	fef43423          	sd	a5,-24(s0)
   10232:	67c9                	lui	a5,0x12
   10234:	6f878793          	add	a5,a5,1784 # 126f8 <__errno+0x10>
   10238:	fef43023          	sd	a5,-32(s0)
   1023c:	67c9                	lui	a5,0x12
   1023e:	70078793          	add	a5,a5,1792 # 12700 <__errno+0x18>
   10242:	fcf43c23          	sd	a5,-40(s0)
   10246:	67c9                	lui	a5,0x12
   10248:	71078793          	add	a5,a5,1808 # 12710 <__errno+0x28>
   1024c:	fcf43823          	sd	a5,-48(s0)
   10250:	fd043683          	ld	a3,-48(s0)
   10254:	fd843603          	ld	a2,-40(s0)
   10258:	fe043583          	ld	a1,-32(s0)
   1025c:	fe843503          	ld	a0,-24(s0)
   10260:	f41ff0ef          	jal	101a0 <print_str>
   10264:	4781                	li	a5,0
   10266:	853e                	mv	a0,a5
   10268:	70a2                	ld	ra,40(sp)
   1026a:	7402                	ld	s0,32(sp)
   1026c:	6145                	add	sp,sp,48
   1026e:	8082                	ret

0000000000010270 <__libc_init_array>:
   10270:	1101                	add	sp,sp,-32
   10272:	e822                	sd	s0,16(sp)
   10274:	67cd                	lui	a5,0x13
   10276:	644d                	lui	s0,0x13
   10278:	e04a                	sd	s2,0(sp)
   1027a:	72078793          	add	a5,a5,1824 # 13720 <__init_array_start>
   1027e:	72040713          	add	a4,s0,1824 # 13720 <__init_array_start>
   10282:	ec06                	sd	ra,24(sp)
   10284:	e426                	sd	s1,8(sp)
   10286:	40e78933          	sub	s2,a5,a4
   1028a:	00e78d63          	beq	a5,a4,102a4 <__libc_init_array+0x34>
   1028e:	40395913          	sra	s2,s2,0x3
   10292:	72040413          	add	s0,s0,1824
   10296:	4481                	li	s1,0
   10298:	601c                	ld	a5,0(s0)
   1029a:	0485                	add	s1,s1,1
   1029c:	0421                	add	s0,s0,8
   1029e:	9782                	jalr	a5
   102a0:	ff24ece3          	bltu	s1,s2,10298 <__libc_init_array+0x28>
   102a4:	644d                	lui	s0,0x13
   102a6:	67cd                	lui	a5,0x13
   102a8:	73078793          	add	a5,a5,1840 # 13730 <__do_global_dtors_aux_fini_array_entry>
   102ac:	72040713          	add	a4,s0,1824 # 13720 <__init_array_start>
   102b0:	40e78933          	sub	s2,a5,a4
   102b4:	40395913          	sra	s2,s2,0x3
   102b8:	00e78b63          	beq	a5,a4,102ce <__libc_init_array+0x5e>
   102bc:	72040413          	add	s0,s0,1824
   102c0:	4481                	li	s1,0
   102c2:	601c                	ld	a5,0(s0)
   102c4:	0485                	add	s1,s1,1
   102c6:	0421                	add	s0,s0,8
   102c8:	9782                	jalr	a5
   102ca:	ff24ece3          	bltu	s1,s2,102c2 <__libc_init_array+0x52>
   102ce:	60e2                	ld	ra,24(sp)
   102d0:	6442                	ld	s0,16(sp)
   102d2:	64a2                	ld	s1,8(sp)
   102d4:	6902                	ld	s2,0(sp)
   102d6:	6105                	add	sp,sp,32
   102d8:	8082                	ret

00000000000102da <memset>:
   102da:	433d                	li	t1,15
   102dc:	872a                	mv	a4,a0
   102de:	02c37163          	bgeu	t1,a2,10300 <memset+0x26>
   102e2:	00f77793          	and	a5,a4,15
   102e6:	e3c1                	bnez	a5,10366 <memset+0x8c>
   102e8:	e1bd                	bnez	a1,1034e <memset+0x74>
   102ea:	ff067693          	and	a3,a2,-16
   102ee:	8a3d                	and	a2,a2,15
   102f0:	96ba                	add	a3,a3,a4
   102f2:	e30c                	sd	a1,0(a4)
   102f4:	e70c                	sd	a1,8(a4)
   102f6:	0741                	add	a4,a4,16
   102f8:	fed76de3          	bltu	a4,a3,102f2 <memset+0x18>
   102fc:	e211                	bnez	a2,10300 <memset+0x26>
   102fe:	8082                	ret
   10300:	40c306b3          	sub	a3,t1,a2
   10304:	068a                	sll	a3,a3,0x2
   10306:	00000297          	auipc	t0,0x0
   1030a:	9696                	add	a3,a3,t0
   1030c:	00a68067          	jr	10(a3)
   10310:	00b70723          	sb	a1,14(a4)
   10314:	00b706a3          	sb	a1,13(a4)
   10318:	00b70623          	sb	a1,12(a4)
   1031c:	00b705a3          	sb	a1,11(a4)
   10320:	00b70523          	sb	a1,10(a4)
   10324:	00b704a3          	sb	a1,9(a4)
   10328:	00b70423          	sb	a1,8(a4)
   1032c:	00b703a3          	sb	a1,7(a4)
   10330:	00b70323          	sb	a1,6(a4)
   10334:	00b702a3          	sb	a1,5(a4)
   10338:	00b70223          	sb	a1,4(a4)
   1033c:	00b701a3          	sb	a1,3(a4)
   10340:	00b70123          	sb	a1,2(a4)
   10344:	00b700a3          	sb	a1,1(a4)
   10348:	00b70023          	sb	a1,0(a4)
   1034c:	8082                	ret
   1034e:	0ff5f593          	zext.b	a1,a1
   10352:	00859693          	sll	a3,a1,0x8
   10356:	8dd5                	or	a1,a1,a3
   10358:	01059693          	sll	a3,a1,0x10
   1035c:	8dd5                	or	a1,a1,a3
   1035e:	02059693          	sll	a3,a1,0x20
   10362:	8dd5                	or	a1,a1,a3
   10364:	b759                	j	102ea <memset+0x10>
   10366:	00279693          	sll	a3,a5,0x2
   1036a:	00000297          	auipc	t0,0x0
   1036e:	9696                	add	a3,a3,t0
   10370:	8286                	mv	t0,ra
   10372:	fa2680e7          	jalr	-94(a3)
   10376:	8096                	mv	ra,t0
   10378:	17c1                	add	a5,a5,-16
   1037a:	8f1d                	sub	a4,a4,a5
   1037c:	963e                	add	a2,a2,a5
   1037e:	f8c371e3          	bgeu	t1,a2,10300 <memset+0x26>
   10382:	b79d                	j	102e8 <memset+0xe>

0000000000010384 <_puts_r>:
   10384:	7159                	add	sp,sp,-112
   10386:	f0a2                	sd	s0,96(sp)
   10388:	842a                	mv	s0,a0
   1038a:	852e                	mv	a0,a1
   1038c:	eca6                	sd	s1,88(sp)
   1038e:	f486                	sd	ra,104(sp)
   10390:	84ae                	mv	s1,a1
   10392:	07a000ef          	jal	1040c <strlen>
   10396:	67c9                	lui	a5,0x12
   10398:	71878793          	add	a5,a5,1816 # 12718 <__errno+0x30>
   1039c:	e0be                	sd	a5,64(sp)
   1039e:	4785                	li	a5,1
   103a0:	e4be                	sd	a5,72(sp)
   103a2:	4838                	lw	a4,80(s0)
   103a4:	181c                	add	a5,sp,48
   103a6:	00150693          	add	a3,a0,1
   103aa:	ec3e                	sd	a5,24(sp)
   103ac:	4789                	li	a5,2
   103ae:	f826                	sd	s1,48(sp)
   103b0:	fc2a                	sd	a0,56(sp)
   103b2:	f436                	sd	a3,40(sp)
   103b4:	d03e                	sw	a5,32(sp)
   103b6:	680c                	ld	a1,16(s0)
   103b8:	cf15                	beqz	a4,103f4 <_puts_r+0x70>
   103ba:	01059783          	lh	a5,16(a1)
   103be:	03279713          	sll	a4,a5,0x32
   103c2:	00074d63          	bltz	a4,103dc <_puts_r+0x58>
   103c6:	0ac5a703          	lw	a4,172(a1)
   103ca:	6689                	lui	a3,0x2
   103cc:	8fd5                	or	a5,a5,a3
   103ce:	76f9                	lui	a3,0xffffe
   103d0:	16fd                	add	a3,a3,-1 # ffffffffffffdfff <__BSS_END__+0xfffffffffffe98a7>
   103d2:	8f75                	and	a4,a4,a3
   103d4:	00f59823          	sh	a5,16(a1)
   103d8:	0ae5a623          	sw	a4,172(a1)
   103dc:	0830                	add	a2,sp,24
   103de:	8522                	mv	a0,s0
   103e0:	438000ef          	jal	10818 <__sfvwrite_r>
   103e4:	47a9                	li	a5,10
   103e6:	ed09                	bnez	a0,10400 <_puts_r+0x7c>
   103e8:	70a6                	ld	ra,104(sp)
   103ea:	7406                	ld	s0,96(sp)
   103ec:	64e6                	ld	s1,88(sp)
   103ee:	853e                	mv	a0,a5
   103f0:	6165                	add	sp,sp,112
   103f2:	8082                	ret
   103f4:	8522                	mv	a0,s0
   103f6:	e42e                	sd	a1,8(sp)
   103f8:	3c4000ef          	jal	107bc <__sinit>
   103fc:	65a2                	ld	a1,8(sp)
   103fe:	bf75                	j	103ba <_puts_r+0x36>
   10400:	57fd                	li	a5,-1
   10402:	b7dd                	j	103e8 <_puts_r+0x64>

0000000000010404 <puts>:
   10404:	85aa                	mv	a1,a0
   10406:	7601b503          	ld	a0,1888(gp) # 146b8 <_impure_ptr>
   1040a:	bfad                	j	10384 <_puts_r>

000000000001040c <strlen>:
   1040c:	00757793          	and	a5,a0,7
   10410:	872a                	mv	a4,a0
   10412:	eba9                	bnez	a5,10464 <strlen+0x58>
   10414:	7381b683          	ld	a3,1848(gp) # 14690 <__SDATA_BEGIN__>
   10418:	55fd                	li	a1,-1
   1041a:	6310                	ld	a2,0(a4)
   1041c:	0721                	add	a4,a4,8
   1041e:	00d677b3          	and	a5,a2,a3
   10422:	97b6                	add	a5,a5,a3
   10424:	8fd1                	or	a5,a5,a2
   10426:	8fd5                	or	a5,a5,a3
   10428:	feb789e3          	beq	a5,a1,1041a <strlen+0xe>
   1042c:	ff874683          	lbu	a3,-8(a4)
   10430:	40a707b3          	sub	a5,a4,a0
   10434:	c6a9                	beqz	a3,1047e <strlen+0x72>
   10436:	ff974683          	lbu	a3,-7(a4)
   1043a:	ce9d                	beqz	a3,10478 <strlen+0x6c>
   1043c:	ffa74683          	lbu	a3,-6(a4)
   10440:	c6a9                	beqz	a3,1048a <strlen+0x7e>
   10442:	ffb74683          	lbu	a3,-5(a4)
   10446:	ce9d                	beqz	a3,10484 <strlen+0x78>
   10448:	ffc74683          	lbu	a3,-4(a4)
   1044c:	c2b1                	beqz	a3,10490 <strlen+0x84>
   1044e:	ffd74683          	lbu	a3,-3(a4)
   10452:	c2b1                	beqz	a3,10496 <strlen+0x8a>
   10454:	ffe74503          	lbu	a0,-2(a4)
   10458:	00a03533          	snez	a0,a0
   1045c:	953e                	add	a0,a0,a5
   1045e:	1579                	add	a0,a0,-2
   10460:	8082                	ret
   10462:	dacd                	beqz	a3,10414 <strlen+0x8>
   10464:	00074783          	lbu	a5,0(a4)
   10468:	0705                	add	a4,a4,1
   1046a:	00777693          	and	a3,a4,7
   1046e:	fbf5                	bnez	a5,10462 <strlen+0x56>
   10470:	8f09                	sub	a4,a4,a0
   10472:	fff70513          	add	a0,a4,-1
   10476:	8082                	ret
   10478:	ff978513          	add	a0,a5,-7
   1047c:	8082                	ret
   1047e:	ff878513          	add	a0,a5,-8
   10482:	8082                	ret
   10484:	ffb78513          	add	a0,a5,-5
   10488:	8082                	ret
   1048a:	ffa78513          	add	a0,a5,-6
   1048e:	8082                	ret
   10490:	ffc78513          	add	a0,a5,-4
   10494:	8082                	ret
   10496:	ffd78513          	add	a0,a5,-3
   1049a:	8082                	ret

000000000001049c <__call_exitprocs>:
   1049c:	715d                	add	sp,sp,-80
   1049e:	f052                	sd	s4,32(sp)
   104a0:	7501ba03          	ld	s4,1872(gp) # 146a8 <_global_impure_ptr>
   104a4:	f84a                	sd	s2,48(sp)
   104a6:	e486                	sd	ra,72(sp)
   104a8:	1f8a3903          	ld	s2,504(s4)
   104ac:	e0a2                	sd	s0,64(sp)
   104ae:	fc26                	sd	s1,56(sp)
   104b0:	f44e                	sd	s3,40(sp)
   104b2:	ec56                	sd	s5,24(sp)
   104b4:	e85a                	sd	s6,16(sp)
   104b6:	e45e                	sd	s7,8(sp)
   104b8:	e062                	sd	s8,0(sp)
   104ba:	02090863          	beqz	s2,104ea <__call_exitprocs+0x4e>
   104be:	8b2a                	mv	s6,a0
   104c0:	8bae                	mv	s7,a1
   104c2:	4a85                	li	s5,1
   104c4:	59fd                	li	s3,-1
   104c6:	00892483          	lw	s1,8(s2)
   104ca:	fff4841b          	addw	s0,s1,-1
   104ce:	00044e63          	bltz	s0,104ea <__call_exitprocs+0x4e>
   104d2:	048e                	sll	s1,s1,0x3
   104d4:	94ca                	add	s1,s1,s2
   104d6:	020b8663          	beqz	s7,10502 <__call_exitprocs+0x66>
   104da:	2084b783          	ld	a5,520(s1)
   104de:	03778263          	beq	a5,s7,10502 <__call_exitprocs+0x66>
   104e2:	347d                	addw	s0,s0,-1
   104e4:	14e1                	add	s1,s1,-8
   104e6:	ff3418e3          	bne	s0,s3,104d6 <__call_exitprocs+0x3a>
   104ea:	60a6                	ld	ra,72(sp)
   104ec:	6406                	ld	s0,64(sp)
   104ee:	74e2                	ld	s1,56(sp)
   104f0:	7942                	ld	s2,48(sp)
   104f2:	79a2                	ld	s3,40(sp)
   104f4:	7a02                	ld	s4,32(sp)
   104f6:	6ae2                	ld	s5,24(sp)
   104f8:	6b42                	ld	s6,16(sp)
   104fa:	6ba2                	ld	s7,8(sp)
   104fc:	6c02                	ld	s8,0(sp)
   104fe:	6161                	add	sp,sp,80
   10500:	8082                	ret
   10502:	00892783          	lw	a5,8(s2)
   10506:	6498                	ld	a4,8(s1)
   10508:	37fd                	addw	a5,a5,-1
   1050a:	04878463          	beq	a5,s0,10552 <__call_exitprocs+0xb6>
   1050e:	0004b423          	sd	zero,8(s1)
   10512:	db61                	beqz	a4,104e2 <__call_exitprocs+0x46>
   10514:	31092783          	lw	a5,784(s2)
   10518:	008a96bb          	sllw	a3,s5,s0
   1051c:	00892c03          	lw	s8,8(s2)
   10520:	8ff5                	and	a5,a5,a3
   10522:	2781                	sext.w	a5,a5
   10524:	ef89                	bnez	a5,1053e <__call_exitprocs+0xa2>
   10526:	9702                	jalr	a4
   10528:	00892703          	lw	a4,8(s2)
   1052c:	1f8a3783          	ld	a5,504(s4)
   10530:	01871463          	bne	a4,s8,10538 <__call_exitprocs+0x9c>
   10534:	fb2787e3          	beq	a5,s2,104e2 <__call_exitprocs+0x46>
   10538:	dbcd                	beqz	a5,104ea <__call_exitprocs+0x4e>
   1053a:	893e                	mv	s2,a5
   1053c:	b769                	j	104c6 <__call_exitprocs+0x2a>
   1053e:	31492783          	lw	a5,788(s2)
   10542:	1084b583          	ld	a1,264(s1)
   10546:	8ff5                	and	a5,a5,a3
   10548:	2781                	sext.w	a5,a5
   1054a:	e799                	bnez	a5,10558 <__call_exitprocs+0xbc>
   1054c:	855a                	mv	a0,s6
   1054e:	9702                	jalr	a4
   10550:	bfe1                	j	10528 <__call_exitprocs+0x8c>
   10552:	00892423          	sw	s0,8(s2)
   10556:	bf75                	j	10512 <__call_exitprocs+0x76>
   10558:	852e                	mv	a0,a1
   1055a:	9702                	jalr	a4
   1055c:	b7f1                	j	10528 <__call_exitprocs+0x8c>

000000000001055e <atexit>:
   1055e:	85aa                	mv	a1,a0
   10560:	4681                	li	a3,0
   10562:	4601                	li	a2,0
   10564:	4501                	li	a0,0
   10566:	5980106f          	j	11afe <__register_exitproc>

000000000001056a <__fp_lock>:
   1056a:	4501                	li	a0,0
   1056c:	8082                	ret

000000000001056e <_cleanup_r>:
   1056e:	65c9                	lui	a1,0x12
   10570:	baa58593          	add	a1,a1,-1110 # 11baa <_fclose_r>
   10574:	a5b9                	j	10bc2 <_fwalk_reent>

0000000000010576 <__fp_unlock>:
   10576:	4501                	li	a0,0
   10578:	8082                	ret

000000000001057a <__sinit.part.0>:
   1057a:	7139                	add	sp,sp,-64
   1057c:	67c1                	lui	a5,0x10
   1057e:	fc06                	sd	ra,56(sp)
   10580:	f822                	sd	s0,48(sp)
   10582:	f426                	sd	s1,40(sp)
   10584:	f04a                	sd	s2,32(sp)
   10586:	ec4e                	sd	s3,24(sp)
   10588:	e852                	sd	s4,16(sp)
   1058a:	e456                	sd	s5,8(sp)
   1058c:	e05a                	sd	s6,0(sp)
   1058e:	6500                	ld	s0,8(a0)
   10590:	56e78793          	add	a5,a5,1390 # 1056e <_cleanup_r>
   10594:	ed3c                	sd	a5,88(a0)
   10596:	53850713          	add	a4,a0,1336
   1059a:	478d                	li	a5,3
   1059c:	52e53823          	sd	a4,1328(a0)
   105a0:	52f52423          	sw	a5,1320(a0)
   105a4:	52053023          	sd	zero,1312(a0)
   105a8:	4791                	li	a5,4
   105aa:	892a                	mv	s2,a0
   105ac:	c81c                	sw	a5,16(s0)
   105ae:	4621                	li	a2,8
   105b0:	4581                	li	a1,0
   105b2:	00043023          	sd	zero,0(s0)
   105b6:	00043423          	sd	zero,8(s0)
   105ba:	0a042623          	sw	zero,172(s0)
   105be:	00043c23          	sd	zero,24(s0)
   105c2:	02042023          	sw	zero,32(s0)
   105c6:	02042423          	sw	zero,40(s0)
   105ca:	0a440513          	add	a0,s0,164
   105ce:	d0dff0ef          	jal	102da <memset>
   105d2:	6b49                	lui	s6,0x12
   105d4:	01093483          	ld	s1,16(s2)
   105d8:	6ac9                	lui	s5,0x12
   105da:	6a49                	lui	s4,0x12
   105dc:	69c9                	lui	s3,0x12
   105de:	900b0b13          	add	s6,s6,-1792 # 11900 <__sread>
   105e2:	93ca8a93          	add	s5,s5,-1732 # 1193c <__swrite>
   105e6:	98ea0a13          	add	s4,s4,-1650 # 1198e <__sseek>
   105ea:	9e098993          	add	s3,s3,-1568 # 119e0 <__sclose>
   105ee:	67c1                	lui	a5,0x10
   105f0:	03643c23          	sd	s6,56(s0)
   105f4:	05543023          	sd	s5,64(s0)
   105f8:	05443423          	sd	s4,72(s0)
   105fc:	05343823          	sd	s3,80(s0)
   10600:	f800                	sd	s0,48(s0)
   10602:	07a5                	add	a5,a5,9 # 10009 <exit-0xdf>
   10604:	c89c                	sw	a5,16(s1)
   10606:	4621                	li	a2,8
   10608:	4581                	li	a1,0
   1060a:	0004b023          	sd	zero,0(s1)
   1060e:	0004b423          	sd	zero,8(s1)
   10612:	0a04a623          	sw	zero,172(s1)
   10616:	0004bc23          	sd	zero,24(s1)
   1061a:	0204a023          	sw	zero,32(s1)
   1061e:	0204a423          	sw	zero,40(s1)
   10622:	0a448513          	add	a0,s1,164
   10626:	cb5ff0ef          	jal	102da <memset>
   1062a:	01893403          	ld	s0,24(s2)
   1062e:	000207b7          	lui	a5,0x20
   10632:	0364bc23          	sd	s6,56(s1)
   10636:	0554b023          	sd	s5,64(s1)
   1063a:	0544b423          	sd	s4,72(s1)
   1063e:	0534b823          	sd	s3,80(s1)
   10642:	f884                	sd	s1,48(s1)
   10644:	07c9                	add	a5,a5,18 # 20012 <__BSS_END__+0xb8ba>
   10646:	c81c                	sw	a5,16(s0)
   10648:	00043023          	sd	zero,0(s0)
   1064c:	00043423          	sd	zero,8(s0)
   10650:	0a042623          	sw	zero,172(s0)
   10654:	00043c23          	sd	zero,24(s0)
   10658:	02042023          	sw	zero,32(s0)
   1065c:	02042423          	sw	zero,40(s0)
   10660:	0a440513          	add	a0,s0,164
   10664:	4621                	li	a2,8
   10666:	4581                	li	a1,0
   10668:	c73ff0ef          	jal	102da <memset>
   1066c:	70e2                	ld	ra,56(sp)
   1066e:	03643c23          	sd	s6,56(s0)
   10672:	05543023          	sd	s5,64(s0)
   10676:	05443423          	sd	s4,72(s0)
   1067a:	05343823          	sd	s3,80(s0)
   1067e:	f800                	sd	s0,48(s0)
   10680:	7442                	ld	s0,48(sp)
   10682:	4785                	li	a5,1
   10684:	04f92823          	sw	a5,80(s2)
   10688:	74a2                	ld	s1,40(sp)
   1068a:	7902                	ld	s2,32(sp)
   1068c:	69e2                	ld	s3,24(sp)
   1068e:	6a42                	ld	s4,16(sp)
   10690:	6aa2                	ld	s5,8(sp)
   10692:	6b02                	ld	s6,0(sp)
   10694:	6121                	add	sp,sp,64
   10696:	8082                	ret

0000000000010698 <__sfmoreglue>:
   10698:	1101                	add	sp,sp,-32
   1069a:	e426                	sd	s1,8(sp)
   1069c:	0b000793          	li	a5,176
   106a0:	fff5849b          	addw	s1,a1,-1
   106a4:	02f484b3          	mul	s1,s1,a5
   106a8:	e04a                	sd	s2,0(sp)
   106aa:	892e                	mv	s2,a1
   106ac:	e822                	sd	s0,16(sp)
   106ae:	ec06                	sd	ra,24(sp)
   106b0:	0c848593          	add	a1,s1,200
   106b4:	592000ef          	jal	10c46 <_malloc_r>
   106b8:	842a                	mv	s0,a0
   106ba:	cd01                	beqz	a0,106d2 <__sfmoreglue+0x3a>
   106bc:	0561                	add	a0,a0,24
   106be:	00043023          	sd	zero,0(s0)
   106c2:	01242423          	sw	s2,8(s0)
   106c6:	e808                	sd	a0,16(s0)
   106c8:	0b048613          	add	a2,s1,176
   106cc:	4581                	li	a1,0
   106ce:	c0dff0ef          	jal	102da <memset>
   106d2:	60e2                	ld	ra,24(sp)
   106d4:	8522                	mv	a0,s0
   106d6:	6442                	ld	s0,16(sp)
   106d8:	64a2                	ld	s1,8(sp)
   106da:	6902                	ld	s2,0(sp)
   106dc:	6105                	add	sp,sp,32
   106de:	8082                	ret

00000000000106e0 <__sfp>:
   106e0:	7179                	add	sp,sp,-48
   106e2:	ec26                	sd	s1,24(sp)
   106e4:	7501b483          	ld	s1,1872(gp) # 146a8 <_global_impure_ptr>
   106e8:	e84a                	sd	s2,16(sp)
   106ea:	f406                	sd	ra,40(sp)
   106ec:	48bc                	lw	a5,80(s1)
   106ee:	f022                	sd	s0,32(sp)
   106f0:	e44e                	sd	s3,8(sp)
   106f2:	892a                	mv	s2,a0
   106f4:	cfbd                	beqz	a5,10772 <__sfp+0x92>
   106f6:	52048493          	add	s1,s1,1312
   106fa:	0b000993          	li	s3,176
   106fe:	4498                	lw	a4,8(s1)
   10700:	6880                	ld	s0,16(s1)
   10702:	06e05463          	blez	a4,1076a <__sfp+0x8a>
   10706:	1702                	sll	a4,a4,0x20
   10708:	9301                	srl	a4,a4,0x20
   1070a:	03370733          	mul	a4,a4,s3
   1070e:	9722                	add	a4,a4,s0
   10710:	a029                	j	1071a <__sfp+0x3a>
   10712:	0b040413          	add	s0,s0,176
   10716:	04e40a63          	beq	s0,a4,1076a <__sfp+0x8a>
   1071a:	01041783          	lh	a5,16(s0)
   1071e:	fbf5                	bnez	a5,10712 <__sfp+0x32>
   10720:	77c1                	lui	a5,0xffff0
   10722:	0785                	add	a5,a5,1 # ffffffffffff0001 <__BSS_END__+0xfffffffffffdb8a9>
   10724:	c81c                	sw	a5,16(s0)
   10726:	0a042623          	sw	zero,172(s0)
   1072a:	00043023          	sd	zero,0(s0)
   1072e:	00043423          	sd	zero,8(s0)
   10732:	00043c23          	sd	zero,24(s0)
   10736:	02042023          	sw	zero,32(s0)
   1073a:	02042423          	sw	zero,40(s0)
   1073e:	4621                	li	a2,8
   10740:	4581                	li	a1,0
   10742:	0a440513          	add	a0,s0,164
   10746:	b95ff0ef          	jal	102da <memset>
   1074a:	04043c23          	sd	zero,88(s0)
   1074e:	06042023          	sw	zero,96(s0)
   10752:	06043c23          	sd	zero,120(s0)
   10756:	08042023          	sw	zero,128(s0)
   1075a:	70a2                	ld	ra,40(sp)
   1075c:	8522                	mv	a0,s0
   1075e:	7402                	ld	s0,32(sp)
   10760:	64e2                	ld	s1,24(sp)
   10762:	6942                	ld	s2,16(sp)
   10764:	69a2                	ld	s3,8(sp)
   10766:	6145                	add	sp,sp,48
   10768:	8082                	ret
   1076a:	6080                	ld	s0,0(s1)
   1076c:	c419                	beqz	s0,1077a <__sfp+0x9a>
   1076e:	84a2                	mv	s1,s0
   10770:	b779                	j	106fe <__sfp+0x1e>
   10772:	8526                	mv	a0,s1
   10774:	e07ff0ef          	jal	1057a <__sinit.part.0>
   10778:	bfbd                	j	106f6 <__sfp+0x16>
   1077a:	2d800593          	li	a1,728
   1077e:	854a                	mv	a0,s2
   10780:	4c6000ef          	jal	10c46 <_malloc_r>
   10784:	842a                	mv	s0,a0
   10786:	cd19                	beqz	a0,107a4 <__sfp+0xc4>
   10788:	0561                	add	a0,a0,24
   1078a:	4791                	li	a5,4
   1078c:	00043023          	sd	zero,0(s0)
   10790:	c41c                	sw	a5,8(s0)
   10792:	e808                	sd	a0,16(s0)
   10794:	2c000613          	li	a2,704
   10798:	4581                	li	a1,0
   1079a:	b41ff0ef          	jal	102da <memset>
   1079e:	e080                	sd	s0,0(s1)
   107a0:	84a2                	mv	s1,s0
   107a2:	bfb1                	j	106fe <__sfp+0x1e>
   107a4:	0004b023          	sd	zero,0(s1)
   107a8:	47b1                	li	a5,12
   107aa:	00f92023          	sw	a5,0(s2)
   107ae:	b775                	j	1075a <__sfp+0x7a>

00000000000107b0 <_cleanup>:
   107b0:	7501b503          	ld	a0,1872(gp) # 146a8 <_global_impure_ptr>
   107b4:	65c9                	lui	a1,0x12
   107b6:	baa58593          	add	a1,a1,-1110 # 11baa <_fclose_r>
   107ba:	a121                	j	10bc2 <_fwalk_reent>

00000000000107bc <__sinit>:
   107bc:	493c                	lw	a5,80(a0)
   107be:	c391                	beqz	a5,107c2 <__sinit+0x6>
   107c0:	8082                	ret
   107c2:	bb65                	j	1057a <__sinit.part.0>

00000000000107c4 <__sfp_lock_acquire>:
   107c4:	8082                	ret

00000000000107c6 <__sfp_lock_release>:
   107c6:	8082                	ret

00000000000107c8 <__sinit_lock_acquire>:
   107c8:	8082                	ret

00000000000107ca <__sinit_lock_release>:
   107ca:	8082                	ret

00000000000107cc <__fp_lock_all>:
   107cc:	7601b503          	ld	a0,1888(gp) # 146b8 <_impure_ptr>
   107d0:	65c1                	lui	a1,0x10
   107d2:	56a58593          	add	a1,a1,1386 # 1056a <__fp_lock>
   107d6:	ae85                	j	10b46 <_fwalk>

00000000000107d8 <__fp_unlock_all>:
   107d8:	7601b503          	ld	a0,1888(gp) # 146b8 <_impure_ptr>
   107dc:	65c1                	lui	a1,0x10
   107de:	57658593          	add	a1,a1,1398 # 10576 <__fp_unlock>
   107e2:	a695                	j	10b46 <_fwalk>

00000000000107e4 <__libc_fini_array>:
   107e4:	1101                	add	sp,sp,-32
   107e6:	e822                	sd	s0,16(sp)
   107e8:	67cd                	lui	a5,0x13
   107ea:	644d                	lui	s0,0x13
   107ec:	73078793          	add	a5,a5,1840 # 13730 <__do_global_dtors_aux_fini_array_entry>
   107f0:	73840413          	add	s0,s0,1848 # 13738 <impure_data>
   107f4:	8c1d                	sub	s0,s0,a5
   107f6:	e426                	sd	s1,8(sp)
   107f8:	ec06                	sd	ra,24(sp)
   107fa:	40345493          	sra	s1,s0,0x3
   107fe:	c881                	beqz	s1,1080e <__libc_fini_array+0x2a>
   10800:	1461                	add	s0,s0,-8
   10802:	943e                	add	s0,s0,a5
   10804:	601c                	ld	a5,0(s0)
   10806:	14fd                	add	s1,s1,-1
   10808:	1461                	add	s0,s0,-8
   1080a:	9782                	jalr	a5
   1080c:	fce5                	bnez	s1,10804 <__libc_fini_array+0x20>
   1080e:	60e2                	ld	ra,24(sp)
   10810:	6442                	ld	s0,16(sp)
   10812:	64a2                	ld	s1,8(sp)
   10814:	6105                	add	sp,sp,32
   10816:	8082                	ret

0000000000010818 <__sfvwrite_r>:
   10818:	6a1c                	ld	a5,16(a2)
   1081a:	1a078a63          	beqz	a5,109ce <__sfvwrite_r+0x1b6>
   1081e:	01059703          	lh	a4,16(a1)
   10822:	711d                	add	sp,sp,-96
   10824:	e8a2                	sd	s0,80(sp)
   10826:	f852                	sd	s4,48(sp)
   10828:	f05a                	sd	s6,32(sp)
   1082a:	ec86                	sd	ra,88(sp)
   1082c:	e4a6                	sd	s1,72(sp)
   1082e:	e0ca                	sd	s2,64(sp)
   10830:	fc4e                	sd	s3,56(sp)
   10832:	f456                	sd	s5,40(sp)
   10834:	ec5e                	sd	s7,24(sp)
   10836:	e862                	sd	s8,16(sp)
   10838:	e466                	sd	s9,8(sp)
   1083a:	00877793          	and	a5,a4,8
   1083e:	8b32                	mv	s6,a2
   10840:	8a2a                	mv	s4,a0
   10842:	842e                	mv	s0,a1
   10844:	c3b5                	beqz	a5,108a8 <__sfvwrite_r+0x90>
   10846:	6d9c                	ld	a5,24(a1)
   10848:	c3a5                	beqz	a5,108a8 <__sfvwrite_r+0x90>
   1084a:	00277793          	and	a5,a4,2
   1084e:	000b3483          	ld	s1,0(s6)
   10852:	cba5                	beqz	a5,108c2 <__sfvwrite_r+0xaa>
   10854:	603c                	ld	a5,64(s0)
   10856:	780c                	ld	a1,48(s0)
   10858:	80000ab7          	lui	s5,0x80000
   1085c:	4981                	li	s3,0
   1085e:	4901                	li	s2,0
   10860:	c00aca93          	xor	s5,s5,-1024
   10864:	864e                	mv	a2,s3
   10866:	8552                	mv	a0,s4
   10868:	02090a63          	beqz	s2,1089c <__sfvwrite_r+0x84>
   1086c:	86ca                	mv	a3,s2
   1086e:	012af363          	bgeu	s5,s2,10874 <__sfvwrite_r+0x5c>
   10872:	86d6                	mv	a3,s5
   10874:	2681                	sext.w	a3,a3
   10876:	9782                	jalr	a5
   10878:	14a05363          	blez	a0,109be <__sfvwrite_r+0x1a6>
   1087c:	010b3783          	ld	a5,16(s6)
   10880:	99aa                	add	s3,s3,a0
   10882:	40a90933          	sub	s2,s2,a0
   10886:	8f89                	sub	a5,a5,a0
   10888:	00fb3823          	sd	a5,16(s6)
   1088c:	10078663          	beqz	a5,10998 <__sfvwrite_r+0x180>
   10890:	603c                	ld	a5,64(s0)
   10892:	780c                	ld	a1,48(s0)
   10894:	864e                	mv	a2,s3
   10896:	8552                	mv	a0,s4
   10898:	fc091ae3          	bnez	s2,1086c <__sfvwrite_r+0x54>
   1089c:	0004b983          	ld	s3,0(s1)
   108a0:	0084b903          	ld	s2,8(s1)
   108a4:	04c1                	add	s1,s1,16
   108a6:	bf7d                	j	10864 <__sfvwrite_r+0x4c>
   108a8:	85a2                	mv	a1,s0
   108aa:	8552                	mv	a0,s4
   108ac:	176010ef          	jal	11a22 <__swsetup_r>
   108b0:	10051d63          	bnez	a0,109ca <__sfvwrite_r+0x1b2>
   108b4:	01041703          	lh	a4,16(s0)
   108b8:	000b3483          	ld	s1,0(s6)
   108bc:	00277793          	and	a5,a4,2
   108c0:	fbd1                	bnez	a5,10854 <__sfvwrite_r+0x3c>
   108c2:	00177793          	and	a5,a4,1
   108c6:	eba5                	bnez	a5,10936 <__sfvwrite_r+0x11e>
   108c8:	00c42b83          	lw	s7,12(s0)
   108cc:	601c                	ld	a5,0(s0)
   108ce:	80000ab7          	lui	s5,0x80000
   108d2:	4c01                	li	s8,0
   108d4:	4901                	li	s2,0
   108d6:	fffaca93          	not	s5,s5
   108da:	853e                	mv	a0,a5
   108dc:	04090763          	beqz	s2,1092a <__sfvwrite_r+0x112>
   108e0:	20077693          	and	a3,a4,512
   108e4:	12068963          	beqz	a3,10a16 <__sfvwrite_r+0x1fe>
   108e8:	19797863          	bgeu	s2,s7,10a78 <__sfvwrite_r+0x260>
   108ec:	8cca                	mv	s9,s2
   108ee:	8bca                	mv	s7,s2
   108f0:	865e                	mv	a2,s7
   108f2:	85e2                	mv	a1,s8
   108f4:	30f000ef          	jal	11402 <memmove>
   108f8:	4458                	lw	a4,12(s0)
   108fa:	601c                	ld	a5,0(s0)
   108fc:	89ca                	mv	s3,s2
   108fe:	4197073b          	subw	a4,a4,s9
   10902:	97de                	add	a5,a5,s7
   10904:	c458                	sw	a4,12(s0)
   10906:	e01c                	sd	a5,0(s0)
   10908:	4901                	li	s2,0
   1090a:	010b3783          	ld	a5,16(s6)
   1090e:	9c4e                	add	s8,s8,s3
   10910:	413787b3          	sub	a5,a5,s3
   10914:	00fb3823          	sd	a5,16(s6)
   10918:	c3c1                	beqz	a5,10998 <__sfvwrite_r+0x180>
   1091a:	601c                	ld	a5,0(s0)
   1091c:	01041703          	lh	a4,16(s0)
   10920:	00c42b83          	lw	s7,12(s0)
   10924:	853e                	mv	a0,a5
   10926:	fa091de3          	bnez	s2,108e0 <__sfvwrite_r+0xc8>
   1092a:	0004bc03          	ld	s8,0(s1)
   1092e:	0084b903          	ld	s2,8(s1)
   10932:	04c1                	add	s1,s1,16
   10934:	b75d                	j	108da <__sfvwrite_r+0xc2>
   10936:	4981                	li	s3,0
   10938:	4501                	li	a0,0
   1093a:	4c81                	li	s9,0
   1093c:	4c01                	li	s8,0
   1093e:	080c0a63          	beqz	s8,109d2 <__sfvwrite_r+0x1ba>
   10942:	c145                	beqz	a0,109e2 <__sfvwrite_r+0x1ca>
   10944:	8bce                	mv	s7,s3
   10946:	013c7363          	bgeu	s8,s3,1094c <__sfvwrite_r+0x134>
   1094a:	8be2                	mv	s7,s8
   1094c:	6008                	ld	a0,0(s0)
   1094e:	6c18                	ld	a4,24(s0)
   10950:	445c                	lw	a5,12(s0)
   10952:	5014                	lw	a3,32(s0)
   10954:	895e                	mv	s2,s7
   10956:	00a77663          	bgeu	a4,a0,10962 <__sfvwrite_r+0x14a>
   1095a:	00d78abb          	addw	s5,a5,a3
   1095e:	097acd63          	blt	s5,s7,109f8 <__sfvwrite_r+0x1e0>
   10962:	18dbc763          	blt	s7,a3,10af0 <__sfvwrite_r+0x2d8>
   10966:	603c                	ld	a5,64(s0)
   10968:	780c                	ld	a1,48(s0)
   1096a:	8666                	mv	a2,s9
   1096c:	8552                	mv	a0,s4
   1096e:	9782                	jalr	a5
   10970:	892a                	mv	s2,a0
   10972:	04a05663          	blez	a0,109be <__sfvwrite_r+0x1a6>
   10976:	0005079b          	sext.w	a5,a0
   1097a:	40f989bb          	subw	s3,s3,a5
   1097e:	4505                	li	a0,1
   10980:	02098a63          	beqz	s3,109b4 <__sfvwrite_r+0x19c>
   10984:	010b3783          	ld	a5,16(s6)
   10988:	9cca                	add	s9,s9,s2
   1098a:	412c0c33          	sub	s8,s8,s2
   1098e:	412787b3          	sub	a5,a5,s2
   10992:	00fb3823          	sd	a5,16(s6)
   10996:	f7c5                	bnez	a5,1093e <__sfvwrite_r+0x126>
   10998:	4501                	li	a0,0
   1099a:	60e6                	ld	ra,88(sp)
   1099c:	6446                	ld	s0,80(sp)
   1099e:	64a6                	ld	s1,72(sp)
   109a0:	6906                	ld	s2,64(sp)
   109a2:	79e2                	ld	s3,56(sp)
   109a4:	7a42                	ld	s4,48(sp)
   109a6:	7aa2                	ld	s5,40(sp)
   109a8:	7b02                	ld	s6,32(sp)
   109aa:	6be2                	ld	s7,24(sp)
   109ac:	6c42                	ld	s8,16(sp)
   109ae:	6ca2                	ld	s9,8(sp)
   109b0:	6125                	add	sp,sp,96
   109b2:	8082                	ret
   109b4:	85a2                	mv	a1,s0
   109b6:	8552                	mv	a0,s4
   109b8:	42a010ef          	jal	11de2 <_fflush_r>
   109bc:	d561                	beqz	a0,10984 <__sfvwrite_r+0x16c>
   109be:	01041783          	lh	a5,16(s0)
   109c2:	0407e793          	or	a5,a5,64
   109c6:	00f41823          	sh	a5,16(s0)
   109ca:	557d                	li	a0,-1
   109cc:	b7f9                	j	1099a <__sfvwrite_r+0x182>
   109ce:	4501                	li	a0,0
   109d0:	8082                	ret
   109d2:	0084bc03          	ld	s8,8(s1)
   109d6:	87a6                	mv	a5,s1
   109d8:	04c1                	add	s1,s1,16
   109da:	fe0c0ce3          	beqz	s8,109d2 <__sfvwrite_r+0x1ba>
   109de:	0007bc83          	ld	s9,0(a5)
   109e2:	8662                	mv	a2,s8
   109e4:	45a9                	li	a1,10
   109e6:	8566                	mv	a0,s9
   109e8:	047000ef          	jal	1122e <memchr>
   109ec:	14050463          	beqz	a0,10b34 <__sfvwrite_r+0x31c>
   109f0:	0505                	add	a0,a0,1
   109f2:	419509bb          	subw	s3,a0,s9
   109f6:	b7b9                	j	10944 <__sfvwrite_r+0x12c>
   109f8:	85e6                	mv	a1,s9
   109fa:	8656                	mv	a2,s5
   109fc:	207000ef          	jal	11402 <memmove>
   10a00:	601c                	ld	a5,0(s0)
   10a02:	85a2                	mv	a1,s0
   10a04:	8552                	mv	a0,s4
   10a06:	97d6                	add	a5,a5,s5
   10a08:	e01c                	sd	a5,0(s0)
   10a0a:	3d8010ef          	jal	11de2 <_fflush_r>
   10a0e:	f945                	bnez	a0,109be <__sfvwrite_r+0x1a6>
   10a10:	87d6                	mv	a5,s5
   10a12:	8956                	mv	s2,s5
   10a14:	b79d                	j	1097a <__sfvwrite_r+0x162>
   10a16:	6c18                	ld	a4,24(s0)
   10a18:	02f76763          	bltu	a4,a5,10a46 <__sfvwrite_r+0x22e>
   10a1c:	5018                	lw	a4,32(s0)
   10a1e:	02e96463          	bltu	s2,a4,10a46 <__sfvwrite_r+0x22e>
   10a22:	86ca                	mv	a3,s2
   10a24:	012af363          	bgeu	s5,s2,10a2a <__sfvwrite_r+0x212>
   10a28:	86d6                	mv	a3,s5
   10a2a:	02e6e73b          	remw	a4,a3,a4
   10a2e:	603c                	ld	a5,64(s0)
   10a30:	780c                	ld	a1,48(s0)
   10a32:	8662                	mv	a2,s8
   10a34:	8552                	mv	a0,s4
   10a36:	9e99                	subw	a3,a3,a4
   10a38:	9782                	jalr	a5
   10a3a:	89aa                	mv	s3,a0
   10a3c:	f8a051e3          	blez	a0,109be <__sfvwrite_r+0x1a6>
   10a40:	41390933          	sub	s2,s2,s3
   10a44:	b5d9                	j	1090a <__sfvwrite_r+0xf2>
   10a46:	89de                	mv	s3,s7
   10a48:	01797363          	bgeu	s2,s7,10a4e <__sfvwrite_r+0x236>
   10a4c:	89ca                	mv	s3,s2
   10a4e:	853e                	mv	a0,a5
   10a50:	864e                	mv	a2,s3
   10a52:	85e2                	mv	a1,s8
   10a54:	1af000ef          	jal	11402 <memmove>
   10a58:	4458                	lw	a4,12(s0)
   10a5a:	601c                	ld	a5,0(s0)
   10a5c:	413706bb          	subw	a3,a4,s3
   10a60:	97ce                	add	a5,a5,s3
   10a62:	c454                	sw	a3,12(s0)
   10a64:	e01c                	sd	a5,0(s0)
   10a66:	fee9                	bnez	a3,10a40 <__sfvwrite_r+0x228>
   10a68:	85a2                	mv	a1,s0
   10a6a:	8552                	mv	a0,s4
   10a6c:	376010ef          	jal	11de2 <_fflush_r>
   10a70:	f539                	bnez	a0,109be <__sfvwrite_r+0x1a6>
   10a72:	41390933          	sub	s2,s2,s3
   10a76:	bd51                	j	1090a <__sfvwrite_r+0xf2>
   10a78:	48077693          	and	a3,a4,1152
   10a7c:	cac1                	beqz	a3,10b0c <__sfvwrite_r+0x2f4>
   10a7e:	5010                	lw	a2,32(s0)
   10a80:	6c0c                	ld	a1,24(s0)
   10a82:	0016169b          	sllw	a3,a2,0x1
   10a86:	9eb1                	addw	a3,a3,a2
   10a88:	8f8d                	sub	a5,a5,a1
   10a8a:	01f6d99b          	srlw	s3,a3,0x1f
   10a8e:	00078b9b          	sext.w	s7,a5
   10a92:	00d989bb          	addw	s3,s3,a3
   10a96:	001b8693          	add	a3,s7,1
   10a9a:	4019d99b          	sraw	s3,s3,0x1
   10a9e:	96ca                	add	a3,a3,s2
   10aa0:	00d9f563          	bgeu	s3,a3,10aaa <__sfvwrite_r+0x292>
   10aa4:	2785                	addw	a5,a5,1
   10aa6:	012789bb          	addw	s3,a5,s2
   10aaa:	40077713          	and	a4,a4,1024
   10aae:	c32d                	beqz	a4,10b10 <__sfvwrite_r+0x2f8>
   10ab0:	85ce                	mv	a1,s3
   10ab2:	8552                	mv	a0,s4
   10ab4:	192000ef          	jal	10c46 <_malloc_r>
   10ab8:	8caa                	mv	s9,a0
   10aba:	c141                	beqz	a0,10b3a <__sfvwrite_r+0x322>
   10abc:	6c0c                	ld	a1,24(s0)
   10abe:	865e                	mv	a2,s7
   10ac0:	7fc000ef          	jal	112bc <memcpy>
   10ac4:	01045783          	lhu	a5,16(s0)
   10ac8:	b7f7f793          	and	a5,a5,-1153
   10acc:	0807e793          	or	a5,a5,128
   10ad0:	00f41823          	sh	a5,16(s0)
   10ad4:	017c8533          	add	a0,s9,s7
   10ad8:	41798bbb          	subw	s7,s3,s7
   10adc:	01943c23          	sd	s9,24(s0)
   10ae0:	01742623          	sw	s7,12(s0)
   10ae4:	e008                	sd	a0,0(s0)
   10ae6:	03342023          	sw	s3,32(s0)
   10aea:	8cca                	mv	s9,s2
   10aec:	8bca                	mv	s7,s2
   10aee:	b509                	j	108f0 <__sfvwrite_r+0xd8>
   10af0:	865e                	mv	a2,s7
   10af2:	85e6                	mv	a1,s9
   10af4:	10f000ef          	jal	11402 <memmove>
   10af8:	4454                	lw	a3,12(s0)
   10afa:	6018                	ld	a4,0(s0)
   10afc:	000b879b          	sext.w	a5,s7
   10b00:	417686bb          	subw	a3,a3,s7
   10b04:	975e                	add	a4,a4,s7
   10b06:	c454                	sw	a3,12(s0)
   10b08:	e018                	sd	a4,0(s0)
   10b0a:	bd85                	j	1097a <__sfvwrite_r+0x162>
   10b0c:	8cde                	mv	s9,s7
   10b0e:	b3cd                	j	108f0 <__sfvwrite_r+0xd8>
   10b10:	864e                	mv	a2,s3
   10b12:	8552                	mv	a0,s4
   10b14:	1cb000ef          	jal	114de <_realloc_r>
   10b18:	8caa                	mv	s9,a0
   10b1a:	fd4d                	bnez	a0,10ad4 <__sfvwrite_r+0x2bc>
   10b1c:	6c0c                	ld	a1,24(s0)
   10b1e:	8552                	mv	a0,s4
   10b20:	412010ef          	jal	11f32 <_free_r>
   10b24:	01041783          	lh	a5,16(s0)
   10b28:	4731                	li	a4,12
   10b2a:	00ea2023          	sw	a4,0(s4)
   10b2e:	f7f7f793          	and	a5,a5,-129
   10b32:	bd41                	j	109c2 <__sfvwrite_r+0x1aa>
   10b34:	001c099b          	addw	s3,s8,1
   10b38:	b531                	j	10944 <__sfvwrite_r+0x12c>
   10b3a:	4731                	li	a4,12
   10b3c:	01041783          	lh	a5,16(s0)
   10b40:	00ea2023          	sw	a4,0(s4)
   10b44:	bdbd                	j	109c2 <__sfvwrite_r+0x1aa>

0000000000010b46 <_fwalk>:
   10b46:	715d                	add	sp,sp,-80
   10b48:	f84a                	sd	s2,48(sp)
   10b4a:	f44e                	sd	s3,40(sp)
   10b4c:	f052                	sd	s4,32(sp)
   10b4e:	ec56                	sd	s5,24(sp)
   10b50:	e85a                	sd	s6,16(sp)
   10b52:	e45e                	sd	s7,8(sp)
   10b54:	e486                	sd	ra,72(sp)
   10b56:	e0a2                	sd	s0,64(sp)
   10b58:	fc26                	sd	s1,56(sp)
   10b5a:	8aae                	mv	s5,a1
   10b5c:	52050993          	add	s3,a0,1312
   10b60:	4901                	li	s2,0
   10b62:	0b000b13          	li	s6,176
   10b66:	4b85                	li	s7,1
   10b68:	5a7d                	li	s4,-1
   10b6a:	0089a483          	lw	s1,8(s3)
   10b6e:	0109b403          	ld	s0,16(s3)
   10b72:	02905863          	blez	s1,10ba2 <_fwalk+0x5c>
   10b76:	1482                	sll	s1,s1,0x20
   10b78:	9081                	srl	s1,s1,0x20
   10b7a:	036484b3          	mul	s1,s1,s6
   10b7e:	94a2                	add	s1,s1,s0
   10b80:	01045783          	lhu	a5,16(s0)
   10b84:	00fbfb63          	bgeu	s7,a5,10b9a <_fwalk+0x54>
   10b88:	01241783          	lh	a5,18(s0)
   10b8c:	8522                	mv	a0,s0
   10b8e:	01478663          	beq	a5,s4,10b9a <_fwalk+0x54>
   10b92:	9a82                	jalr	s5
   10b94:	01256933          	or	s2,a0,s2
   10b98:	2901                	sext.w	s2,s2
   10b9a:	0b040413          	add	s0,s0,176
   10b9e:	fe8491e3          	bne	s1,s0,10b80 <_fwalk+0x3a>
   10ba2:	0009b983          	ld	s3,0(s3)
   10ba6:	fc0992e3          	bnez	s3,10b6a <_fwalk+0x24>
   10baa:	60a6                	ld	ra,72(sp)
   10bac:	6406                	ld	s0,64(sp)
   10bae:	74e2                	ld	s1,56(sp)
   10bb0:	79a2                	ld	s3,40(sp)
   10bb2:	7a02                	ld	s4,32(sp)
   10bb4:	6ae2                	ld	s5,24(sp)
   10bb6:	6b42                	ld	s6,16(sp)
   10bb8:	6ba2                	ld	s7,8(sp)
   10bba:	854a                	mv	a0,s2
   10bbc:	7942                	ld	s2,48(sp)
   10bbe:	6161                	add	sp,sp,80
   10bc0:	8082                	ret

0000000000010bc2 <_fwalk_reent>:
   10bc2:	715d                	add	sp,sp,-80
   10bc4:	f84a                	sd	s2,48(sp)
   10bc6:	f44e                	sd	s3,40(sp)
   10bc8:	f052                	sd	s4,32(sp)
   10bca:	ec56                	sd	s5,24(sp)
   10bcc:	e85a                	sd	s6,16(sp)
   10bce:	e45e                	sd	s7,8(sp)
   10bd0:	e062                	sd	s8,0(sp)
   10bd2:	e486                	sd	ra,72(sp)
   10bd4:	e0a2                	sd	s0,64(sp)
   10bd6:	fc26                	sd	s1,56(sp)
   10bd8:	89aa                	mv	s3,a0
   10bda:	8b2e                	mv	s6,a1
   10bdc:	52050a13          	add	s4,a0,1312
   10be0:	4901                	li	s2,0
   10be2:	0b000b93          	li	s7,176
   10be6:	4c05                	li	s8,1
   10be8:	5afd                	li	s5,-1
   10bea:	008a2483          	lw	s1,8(s4)
   10bee:	010a3403          	ld	s0,16(s4)
   10bf2:	02905963          	blez	s1,10c24 <_fwalk_reent+0x62>
   10bf6:	1482                	sll	s1,s1,0x20
   10bf8:	9081                	srl	s1,s1,0x20
   10bfa:	037484b3          	mul	s1,s1,s7
   10bfe:	94a2                	add	s1,s1,s0
   10c00:	01045783          	lhu	a5,16(s0)
   10c04:	00fc7c63          	bgeu	s8,a5,10c1c <_fwalk_reent+0x5a>
   10c08:	01241783          	lh	a5,18(s0)
   10c0c:	85a2                	mv	a1,s0
   10c0e:	854e                	mv	a0,s3
   10c10:	01578663          	beq	a5,s5,10c1c <_fwalk_reent+0x5a>
   10c14:	9b02                	jalr	s6
   10c16:	01256933          	or	s2,a0,s2
   10c1a:	2901                	sext.w	s2,s2
   10c1c:	0b040413          	add	s0,s0,176
   10c20:	fe8490e3          	bne	s1,s0,10c00 <_fwalk_reent+0x3e>
   10c24:	000a3a03          	ld	s4,0(s4)
   10c28:	fc0a11e3          	bnez	s4,10bea <_fwalk_reent+0x28>
   10c2c:	60a6                	ld	ra,72(sp)
   10c2e:	6406                	ld	s0,64(sp)
   10c30:	74e2                	ld	s1,56(sp)
   10c32:	79a2                	ld	s3,40(sp)
   10c34:	7a02                	ld	s4,32(sp)
   10c36:	6ae2                	ld	s5,24(sp)
   10c38:	6b42                	ld	s6,16(sp)
   10c3a:	6ba2                	ld	s7,8(sp)
   10c3c:	6c02                	ld	s8,0(sp)
   10c3e:	854a                	mv	a0,s2
   10c40:	7942                	ld	s2,48(sp)
   10c42:	6161                	add	sp,sp,80
   10c44:	8082                	ret

0000000000010c46 <_malloc_r>:
   10c46:	711d                	add	sp,sp,-96
   10c48:	e4a6                	sd	s1,72(sp)
   10c4a:	e0ca                	sd	s2,64(sp)
   10c4c:	ec86                	sd	ra,88(sp)
   10c4e:	e8a2                	sd	s0,80(sp)
   10c50:	fc4e                	sd	s3,56(sp)
   10c52:	f852                	sd	s4,48(sp)
   10c54:	f456                	sd	s5,40(sp)
   10c56:	f05a                	sd	s6,32(sp)
   10c58:	ec5e                	sd	s7,24(sp)
   10c5a:	e862                	sd	s8,16(sp)
   10c5c:	e466                	sd	s9,8(sp)
   10c5e:	01758493          	add	s1,a1,23
   10c62:	02e00793          	li	a5,46
   10c66:	892a                	mv	s2,a0
   10c68:	0697e363          	bltu	a5,s1,10cce <_malloc_r+0x88>
   10c6c:	02000793          	li	a5,32
   10c70:	18b7ee63          	bltu	a5,a1,10e0c <_malloc_r+0x1c6>
   10c74:	067000ef          	jal	114da <__malloc_lock>
   10c78:	02000493          	li	s1,32
   10c7c:	05000793          	li	a5,80
   10c80:	4611                	li	a2,4
   10c82:	69d1                	lui	s3,0x14
   10c84:	e8098993          	add	s3,s3,-384 # 13e80 <__malloc_av_>
   10c88:	97ce                	add	a5,a5,s3
   10c8a:	6780                	ld	s0,8(a5)
   10c8c:	ff078713          	add	a4,a5,-16
   10c90:	24e40b63          	beq	s0,a4,10ee6 <_malloc_r+0x2a0>
   10c94:	641c                	ld	a5,8(s0)
   10c96:	6c14                	ld	a3,24(s0)
   10c98:	6810                	ld	a2,16(s0)
   10c9a:	9bf1                	and	a5,a5,-4
   10c9c:	97a2                	add	a5,a5,s0
   10c9e:	6798                	ld	a4,8(a5)
   10ca0:	ee14                	sd	a3,24(a2)
   10ca2:	ea90                	sd	a2,16(a3)
   10ca4:	00176713          	or	a4,a4,1
   10ca8:	854a                	mv	a0,s2
   10caa:	e798                	sd	a4,8(a5)
   10cac:	031000ef          	jal	114dc <__malloc_unlock>
   10cb0:	01040513          	add	a0,s0,16
   10cb4:	60e6                	ld	ra,88(sp)
   10cb6:	6446                	ld	s0,80(sp)
   10cb8:	64a6                	ld	s1,72(sp)
   10cba:	6906                	ld	s2,64(sp)
   10cbc:	79e2                	ld	s3,56(sp)
   10cbe:	7a42                	ld	s4,48(sp)
   10cc0:	7aa2                	ld	s5,40(sp)
   10cc2:	7b02                	ld	s6,32(sp)
   10cc4:	6be2                	ld	s7,24(sp)
   10cc6:	6c42                	ld	s8,16(sp)
   10cc8:	6ca2                	ld	s9,8(sp)
   10cca:	6125                	add	sp,sp,96
   10ccc:	8082                	ret
   10cce:	800007b7          	lui	a5,0x80000
   10cd2:	98c1                	and	s1,s1,-16
   10cd4:	fff7c793          	not	a5,a5
   10cd8:	1297ea63          	bltu	a5,s1,10e0c <_malloc_r+0x1c6>
   10cdc:	12b4e863          	bltu	s1,a1,10e0c <_malloc_r+0x1c6>
   10ce0:	7fa000ef          	jal	114da <__malloc_lock>
   10ce4:	1f700793          	li	a5,503
   10ce8:	2e97fa63          	bgeu	a5,s1,10fdc <_malloc_r+0x396>
   10cec:	0094d793          	srl	a5,s1,0x9
   10cf0:	12078363          	beqz	a5,10e16 <_malloc_r+0x1d0>
   10cf4:	4711                	li	a4,4
   10cf6:	22f76f63          	bltu	a4,a5,10f34 <_malloc_r+0x2ee>
   10cfa:	0064d793          	srl	a5,s1,0x6
   10cfe:	0397861b          	addw	a2,a5,57 # ffffffff80000039 <__BSS_END__+0xffffffff7ffeb8e1>
   10d02:	0016169b          	sllw	a3,a2,0x1
   10d06:	0387851b          	addw	a0,a5,56
   10d0a:	068e                	sll	a3,a3,0x3
   10d0c:	69d1                	lui	s3,0x14
   10d0e:	e8098993          	add	s3,s3,-384 # 13e80 <__malloc_av_>
   10d12:	96ce                	add	a3,a3,s3
   10d14:	6680                	ld	s0,8(a3)
   10d16:	16c1                	add	a3,a3,-16
   10d18:	02868063          	beq	a3,s0,10d38 <_malloc_r+0xf2>
   10d1c:	45fd                	li	a1,31
   10d1e:	a031                	j	10d2a <_malloc_r+0xe4>
   10d20:	1c075063          	bgez	a4,10ee0 <_malloc_r+0x29a>
   10d24:	6c00                	ld	s0,24(s0)
   10d26:	00868963          	beq	a3,s0,10d38 <_malloc_r+0xf2>
   10d2a:	641c                	ld	a5,8(s0)
   10d2c:	9bf1                	and	a5,a5,-4
   10d2e:	40978733          	sub	a4,a5,s1
   10d32:	fee5d7e3          	bge	a1,a4,10d20 <_malloc_r+0xda>
   10d36:	862a                	mv	a2,a0
   10d38:	0209b403          	ld	s0,32(s3)
   10d3c:	6851                	lui	a6,0x14
   10d3e:	e9080813          	add	a6,a6,-368 # 13e90 <__malloc_av_+0x10>
   10d42:	19040c63          	beq	s0,a6,10eda <_malloc_r+0x294>
   10d46:	641c                	ld	a5,8(s0)
   10d48:	46fd                	li	a3,31
   10d4a:	9bf1                	and	a5,a5,-4
   10d4c:	40978733          	sub	a4,a5,s1
   10d50:	24e6cf63          	blt	a3,a4,10fae <_malloc_r+0x368>
   10d54:	0309b423          	sd	a6,40(s3)
   10d58:	0309b023          	sd	a6,32(s3)
   10d5c:	22075e63          	bgez	a4,10f98 <_malloc_r+0x352>
   10d60:	1ff00713          	li	a4,511
   10d64:	0089b503          	ld	a0,8(s3)
   10d68:	18f76463          	bltu	a4,a5,10ef0 <_malloc_r+0x2aa>
   10d6c:	838d                	srl	a5,a5,0x3
   10d6e:	0017871b          	addw	a4,a5,1
   10d72:	0017171b          	sllw	a4,a4,0x1
   10d76:	070e                	sll	a4,a4,0x3
   10d78:	974e                	add	a4,a4,s3
   10d7a:	630c                	ld	a1,0(a4)
   10d7c:	4027d79b          	sraw	a5,a5,0x2
   10d80:	4685                	li	a3,1
   10d82:	00f697b3          	sll	a5,a3,a5
   10d86:	8d5d                	or	a0,a0,a5
   10d88:	ff070793          	add	a5,a4,-16
   10d8c:	ec1c                	sd	a5,24(s0)
   10d8e:	e80c                	sd	a1,16(s0)
   10d90:	00a9b423          	sd	a0,8(s3)
   10d94:	e300                	sd	s0,0(a4)
   10d96:	ed80                	sd	s0,24(a1)
   10d98:	4026579b          	sraw	a5,a2,0x2
   10d9c:	4585                	li	a1,1
   10d9e:	00f595b3          	sll	a1,a1,a5
   10da2:	08b56163          	bltu	a0,a1,10e24 <_malloc_r+0x1de>
   10da6:	00a5f7b3          	and	a5,a1,a0
   10daa:	ef81                	bnez	a5,10dc2 <_malloc_r+0x17c>
   10dac:	0586                	sll	a1,a1,0x1
   10dae:	9a71                	and	a2,a2,-4
   10db0:	00a5f7b3          	and	a5,a1,a0
   10db4:	2611                	addw	a2,a2,4
   10db6:	e791                	bnez	a5,10dc2 <_malloc_r+0x17c>
   10db8:	0586                	sll	a1,a1,0x1
   10dba:	00a5f7b3          	and	a5,a1,a0
   10dbe:	2611                	addw	a2,a2,4
   10dc0:	dfe5                	beqz	a5,10db8 <_malloc_r+0x172>
   10dc2:	48fd                	li	a7,31
   10dc4:	0016031b          	addw	t1,a2,1
   10dc8:	0013131b          	sllw	t1,t1,0x1
   10dcc:	030e                	sll	t1,t1,0x3
   10dce:	1341                	add	t1,t1,-16 # 10186 <frame_dummy>
   10dd0:	934e                	add	t1,t1,s3
   10dd2:	851a                	mv	a0,t1
   10dd4:	6d1c                	ld	a5,24(a0)
   10dd6:	8e32                	mv	t3,a2
   10dd8:	16f50f63          	beq	a0,a5,10f56 <_malloc_r+0x310>
   10ddc:	6798                	ld	a4,8(a5)
   10dde:	843e                	mv	s0,a5
   10de0:	6f9c                	ld	a5,24(a5)
   10de2:	9b71                	and	a4,a4,-4
   10de4:	409706b3          	sub	a3,a4,s1
   10de8:	16d8ce63          	blt	a7,a3,10f64 <_malloc_r+0x31e>
   10dec:	fe06c6e3          	bltz	a3,10dd8 <_malloc_r+0x192>
   10df0:	9722                	add	a4,a4,s0
   10df2:	6714                	ld	a3,8(a4)
   10df4:	6810                	ld	a2,16(s0)
   10df6:	854a                	mv	a0,s2
   10df8:	0016e693          	or	a3,a3,1
   10dfc:	e714                	sd	a3,8(a4)
   10dfe:	ee1c                	sd	a5,24(a2)
   10e00:	eb90                	sd	a2,16(a5)
   10e02:	6da000ef          	jal	114dc <__malloc_unlock>
   10e06:	01040513          	add	a0,s0,16
   10e0a:	b56d                	j	10cb4 <_malloc_r+0x6e>
   10e0c:	47b1                	li	a5,12
   10e0e:	00f92023          	sw	a5,0(s2)
   10e12:	4501                	li	a0,0
   10e14:	b545                	j	10cb4 <_malloc_r+0x6e>
   10e16:	40000693          	li	a3,1024
   10e1a:	04000613          	li	a2,64
   10e1e:	03f00513          	li	a0,63
   10e22:	b5ed                	j	10d0c <_malloc_r+0xc6>
   10e24:	0109b403          	ld	s0,16(s3)
   10e28:	641c                	ld	a5,8(s0)
   10e2a:	ffc7fa93          	and	s5,a5,-4
   10e2e:	009ae763          	bltu	s5,s1,10e3c <_malloc_r+0x1f6>
   10e32:	409a8733          	sub	a4,s5,s1
   10e36:	47fd                	li	a5,31
   10e38:	08e7c263          	blt	a5,a4,10ebc <_malloc_r+0x276>
   10e3c:	7881ba03          	ld	s4,1928(gp) # 146e0 <__malloc_top_pad>
   10e40:	7681b703          	ld	a4,1896(gp) # 146c0 <__malloc_sbrk_base>
   10e44:	57fd                	li	a5,-1
   10e46:	01540c33          	add	s8,s0,s5
   10e4a:	9a26                	add	s4,s4,s1
   10e4c:	2ef70363          	beq	a4,a5,11132 <_malloc_r+0x4ec>
   10e50:	6785                	lui	a5,0x1
   10e52:	07fd                	add	a5,a5,31 # 101f <exit-0xf0c9>
   10e54:	9a3e                	add	s4,s4,a5
   10e56:	77fd                	lui	a5,0xfffff
   10e58:	00fa7a33          	and	s4,s4,a5
   10e5c:	85d2                	mv	a1,s4
   10e5e:	854a                	mv	a0,s2
   10e60:	26b000ef          	jal	118ca <_sbrk_r>
   10e64:	57fd                	li	a5,-1
   10e66:	8b2a                	mv	s6,a0
   10e68:	18f50f63          	beq	a0,a5,11006 <_malloc_r+0x3c0>
   10e6c:	19856b63          	bltu	a0,s8,11002 <_malloc_r+0x3bc>
   10e70:	6bd1                	lui	s7,0x14
   10e72:	730b8b93          	add	s7,s7,1840 # 14730 <__malloc_current_mallinfo>
   10e76:	000ba783          	lw	a5,0(s7)
   10e7a:	0147873b          	addw	a4,a5,s4
   10e7e:	00eba023          	sw	a4,0(s7)
   10e82:	86ba                	mv	a3,a4
   10e84:	20ac1163          	bne	s8,a0,11086 <_malloc_r+0x440>
   10e88:	03451793          	sll	a5,a0,0x34
   10e8c:	1e079d63          	bnez	a5,11086 <_malloc_r+0x440>
   10e90:	0109bb03          	ld	s6,16(s3)
   10e94:	014a87b3          	add	a5,s5,s4
   10e98:	0017e793          	or	a5,a5,1
   10e9c:	00fb3423          	sd	a5,8(s6)
   10ea0:	7801b603          	ld	a2,1920(gp) # 146d8 <__malloc_max_sbrked_mem>
   10ea4:	00e67463          	bgeu	a2,a4,10eac <_malloc_r+0x266>
   10ea8:	78e1b023          	sd	a4,1920(gp) # 146d8 <__malloc_max_sbrked_mem>
   10eac:	7781b603          	ld	a2,1912(gp) # 146d0 <__malloc_max_total_mem>
   10eb0:	00e67463          	bgeu	a2,a4,10eb8 <_malloc_r+0x272>
   10eb4:	76e1bc23          	sd	a4,1912(gp) # 146d0 <__malloc_max_total_mem>
   10eb8:	845a                	mv	s0,s6
   10eba:	aa89                	j	1100c <_malloc_r+0x3c6>
   10ebc:	0014e793          	or	a5,s1,1
   10ec0:	e41c                	sd	a5,8(s0)
   10ec2:	94a2                	add	s1,s1,s0
   10ec4:	0099b823          	sd	s1,16(s3)
   10ec8:	00176713          	or	a4,a4,1
   10ecc:	854a                	mv	a0,s2
   10ece:	e498                	sd	a4,8(s1)
   10ed0:	60c000ef          	jal	114dc <__malloc_unlock>
   10ed4:	01040513          	add	a0,s0,16
   10ed8:	bbf1                	j	10cb4 <_malloc_r+0x6e>
   10eda:	0089b503          	ld	a0,8(s3)
   10ede:	bd6d                	j	10d98 <_malloc_r+0x152>
   10ee0:	6c14                	ld	a3,24(s0)
   10ee2:	6810                	ld	a2,16(s0)
   10ee4:	bb65                	j	10c9c <_malloc_r+0x56>
   10ee6:	6f80                	ld	s0,24(a5)
   10ee8:	2609                	addw	a2,a2,2
   10eea:	e48787e3          	beq	a5,s0,10d38 <_malloc_r+0xf2>
   10eee:	b35d                	j	10c94 <_malloc_r+0x4e>
   10ef0:	0097d713          	srl	a4,a5,0x9
   10ef4:	4691                	li	a3,4
   10ef6:	0ee6fc63          	bgeu	a3,a4,10fee <_malloc_r+0x3a8>
   10efa:	46d1                	li	a3,20
   10efc:	26e6e763          	bltu	a3,a4,1116a <_malloc_r+0x524>
   10f00:	05c7059b          	addw	a1,a4,92
   10f04:	0015959b          	sllw	a1,a1,0x1
   10f08:	05b7069b          	addw	a3,a4,91
   10f0c:	058e                	sll	a1,a1,0x3
   10f0e:	95ce                	add	a1,a1,s3
   10f10:	6198                	ld	a4,0(a1)
   10f12:	15c1                	add	a1,a1,-16
   10f14:	00e59663          	bne	a1,a4,10f20 <_malloc_r+0x2da>
   10f18:	a405                	j	11138 <_malloc_r+0x4f2>
   10f1a:	6b18                	ld	a4,16(a4)
   10f1c:	00e58663          	beq	a1,a4,10f28 <_malloc_r+0x2e2>
   10f20:	6714                	ld	a3,8(a4)
   10f22:	9af1                	and	a3,a3,-4
   10f24:	fed7ebe3          	bltu	a5,a3,10f1a <_malloc_r+0x2d4>
   10f28:	6f0c                	ld	a1,24(a4)
   10f2a:	ec0c                	sd	a1,24(s0)
   10f2c:	e818                	sd	a4,16(s0)
   10f2e:	e980                	sd	s0,16(a1)
   10f30:	ef00                	sd	s0,24(a4)
   10f32:	b59d                	j	10d98 <_malloc_r+0x152>
   10f34:	4751                	li	a4,20
   10f36:	0ef77863          	bgeu	a4,a5,11026 <_malloc_r+0x3e0>
   10f3a:	05400713          	li	a4,84
   10f3e:	24f76463          	bltu	a4,a5,11186 <_malloc_r+0x540>
   10f42:	00c4d793          	srl	a5,s1,0xc
   10f46:	06f7861b          	addw	a2,a5,111 # fffffffffffff06f <__BSS_END__+0xfffffffffffea917>
   10f4a:	0016169b          	sllw	a3,a2,0x1
   10f4e:	06e7851b          	addw	a0,a5,110
   10f52:	068e                	sll	a3,a3,0x3
   10f54:	bb65                	j	10d0c <_malloc_r+0xc6>
   10f56:	2e05                	addw	t3,t3,1
   10f58:	003e7793          	and	a5,t3,3
   10f5c:	0541                	add	a0,a0,16
   10f5e:	c3ed                	beqz	a5,11040 <_malloc_r+0x3fa>
   10f60:	6d1c                	ld	a5,24(a0)
   10f62:	bd9d                	j	10dd8 <_malloc_r+0x192>
   10f64:	6810                	ld	a2,16(s0)
   10f66:	0014e593          	or	a1,s1,1
   10f6a:	e40c                	sd	a1,8(s0)
   10f6c:	ee1c                	sd	a5,24(a2)
   10f6e:	eb90                	sd	a2,16(a5)
   10f70:	94a2                	add	s1,s1,s0
   10f72:	0299b423          	sd	s1,40(s3)
   10f76:	0299b023          	sd	s1,32(s3)
   10f7a:	0016e793          	or	a5,a3,1
   10f7e:	0104bc23          	sd	a6,24(s1)
   10f82:	0104b823          	sd	a6,16(s1)
   10f86:	e49c                	sd	a5,8(s1)
   10f88:	9722                	add	a4,a4,s0
   10f8a:	854a                	mv	a0,s2
   10f8c:	e314                	sd	a3,0(a4)
   10f8e:	54e000ef          	jal	114dc <__malloc_unlock>
   10f92:	01040513          	add	a0,s0,16
   10f96:	bb39                	j	10cb4 <_malloc_r+0x6e>
   10f98:	97a2                	add	a5,a5,s0
   10f9a:	6798                	ld	a4,8(a5)
   10f9c:	854a                	mv	a0,s2
   10f9e:	00176713          	or	a4,a4,1
   10fa2:	e798                	sd	a4,8(a5)
   10fa4:	538000ef          	jal	114dc <__malloc_unlock>
   10fa8:	01040513          	add	a0,s0,16
   10fac:	b321                	j	10cb4 <_malloc_r+0x6e>
   10fae:	0014e693          	or	a3,s1,1
   10fb2:	e414                	sd	a3,8(s0)
   10fb4:	94a2                	add	s1,s1,s0
   10fb6:	0299b423          	sd	s1,40(s3)
   10fba:	0299b023          	sd	s1,32(s3)
   10fbe:	00176693          	or	a3,a4,1
   10fc2:	0104bc23          	sd	a6,24(s1)
   10fc6:	0104b823          	sd	a6,16(s1)
   10fca:	e494                	sd	a3,8(s1)
   10fcc:	97a2                	add	a5,a5,s0
   10fce:	854a                	mv	a0,s2
   10fd0:	e398                	sd	a4,0(a5)
   10fd2:	50a000ef          	jal	114dc <__malloc_unlock>
   10fd6:	01040513          	add	a0,s0,16
   10fda:	b9e9                	j	10cb4 <_malloc_r+0x6e>
   10fdc:	0034d613          	srl	a2,s1,0x3
   10fe0:	0016079b          	addw	a5,a2,1
   10fe4:	0017979b          	sllw	a5,a5,0x1
   10fe8:	2601                	sext.w	a2,a2
   10fea:	078e                	sll	a5,a5,0x3
   10fec:	b959                	j	10c82 <_malloc_r+0x3c>
   10fee:	0067d713          	srl	a4,a5,0x6
   10ff2:	0397059b          	addw	a1,a4,57
   10ff6:	0015959b          	sllw	a1,a1,0x1
   10ffa:	0387069b          	addw	a3,a4,56
   10ffe:	058e                	sll	a1,a1,0x3
   11000:	b739                	j	10f0e <_malloc_r+0x2c8>
   11002:	07340963          	beq	s0,s3,11074 <_malloc_r+0x42e>
   11006:	0109b403          	ld	s0,16(s3)
   1100a:	641c                	ld	a5,8(s0)
   1100c:	9bf1                	and	a5,a5,-4
   1100e:	40978733          	sub	a4,a5,s1
   11012:	0097e563          	bltu	a5,s1,1101c <_malloc_r+0x3d6>
   11016:	47fd                	li	a5,31
   11018:	eae7c2e3          	blt	a5,a4,10ebc <_malloc_r+0x276>
   1101c:	854a                	mv	a0,s2
   1101e:	4be000ef          	jal	114dc <__malloc_unlock>
   11022:	4501                	li	a0,0
   11024:	b941                	j	10cb4 <_malloc_r+0x6e>
   11026:	05c7861b          	addw	a2,a5,92
   1102a:	0016169b          	sllw	a3,a2,0x1
   1102e:	05b7851b          	addw	a0,a5,91
   11032:	068e                	sll	a3,a3,0x3
   11034:	b9e1                	j	10d0c <_malloc_r+0xc6>
   11036:	01033783          	ld	a5,16(t1)
   1103a:	367d                	addw	a2,a2,-1
   1103c:	1e679663          	bne	a5,t1,11228 <_malloc_r+0x5e2>
   11040:	00367793          	and	a5,a2,3
   11044:	1341                	add	t1,t1,-16
   11046:	fbe5                	bnez	a5,11036 <_malloc_r+0x3f0>
   11048:	0089b703          	ld	a4,8(s3)
   1104c:	fff5c793          	not	a5,a1
   11050:	8ff9                	and	a5,a5,a4
   11052:	00f9b423          	sd	a5,8(s3)
   11056:	0586                	sll	a1,a1,0x1
   11058:	dcb7e6e3          	bltu	a5,a1,10e24 <_malloc_r+0x1de>
   1105c:	dc0584e3          	beqz	a1,10e24 <_malloc_r+0x1de>
   11060:	00f5f733          	and	a4,a1,a5
   11064:	e711                	bnez	a4,11070 <_malloc_r+0x42a>
   11066:	0586                	sll	a1,a1,0x1
   11068:	00f5f733          	and	a4,a1,a5
   1106c:	2e11                	addw	t3,t3,4
   1106e:	df65                	beqz	a4,11066 <_malloc_r+0x420>
   11070:	8672                	mv	a2,t3
   11072:	bb89                	j	10dc4 <_malloc_r+0x17e>
   11074:	6bd1                	lui	s7,0x14
   11076:	730b8b93          	add	s7,s7,1840 # 14730 <__malloc_current_mallinfo>
   1107a:	000ba783          	lw	a5,0(s7)
   1107e:	014786bb          	addw	a3,a5,s4
   11082:	00dba023          	sw	a3,0(s7)
   11086:	7681b703          	ld	a4,1896(gp) # 146c0 <__malloc_sbrk_base>
   1108a:	57fd                	li	a5,-1
   1108c:	10f70b63          	beq	a4,a5,111a2 <_malloc_r+0x55c>
   11090:	418b07b3          	sub	a5,s6,s8
   11094:	9fb5                	addw	a5,a5,a3
   11096:	00fba023          	sw	a5,0(s7)
   1109a:	00fb7c93          	and	s9,s6,15
   1109e:	0a0c8663          	beqz	s9,1114a <_malloc_r+0x504>
   110a2:	6705                	lui	a4,0x1
   110a4:	419b0b33          	sub	s6,s6,s9
   110a8:	01070c13          	add	s8,a4,16 # 1010 <exit-0xf0d8>
   110ac:	0b41                	add	s6,s6,16
   110ae:	419c0c33          	sub	s8,s8,s9
   110b2:	9a5a                	add	s4,s4,s6
   110b4:	177d                	add	a4,a4,-1
   110b6:	414c0c33          	sub	s8,s8,s4
   110ba:	00ec7c33          	and	s8,s8,a4
   110be:	85e2                	mv	a1,s8
   110c0:	854a                	mv	a0,s2
   110c2:	009000ef          	jal	118ca <_sbrk_r>
   110c6:	57fd                	li	a5,-1
   110c8:	12f50063          	beq	a0,a5,111e8 <_malloc_r+0x5a2>
   110cc:	41650533          	sub	a0,a0,s6
   110d0:	000c069b          	sext.w	a3,s8
   110d4:	01850a33          	add	s4,a0,s8
   110d8:	000ba703          	lw	a4,0(s7)
   110dc:	0169b823          	sd	s6,16(s3)
   110e0:	001a6793          	or	a5,s4,1
   110e4:	9f35                	addw	a4,a4,a3
   110e6:	00eba023          	sw	a4,0(s7)
   110ea:	00fb3423          	sd	a5,8(s6)
   110ee:	db3409e3          	beq	s0,s3,10ea0 <_malloc_r+0x25a>
   110f2:	467d                	li	a2,31
   110f4:	0b567a63          	bgeu	a2,s5,111a8 <_malloc_r+0x562>
   110f8:	6414                	ld	a3,8(s0)
   110fa:	fe8a8793          	add	a5,s5,-24 # ffffffff7fffffe8 <__BSS_END__+0xffffffff7ffeb890>
   110fe:	9bc1                	and	a5,a5,-16
   11100:	8a85                	and	a3,a3,1
   11102:	8edd                	or	a3,a3,a5
   11104:	e414                	sd	a3,8(s0)
   11106:	45a5                	li	a1,9
   11108:	00f406b3          	add	a3,s0,a5
   1110c:	e68c                	sd	a1,8(a3)
   1110e:	ea8c                	sd	a1,16(a3)
   11110:	00f66563          	bltu	a2,a5,1111a <_malloc_r+0x4d4>
   11114:	008b3783          	ld	a5,8(s6)
   11118:	b361                	j	10ea0 <_malloc_r+0x25a>
   1111a:	01040593          	add	a1,s0,16
   1111e:	854a                	mv	a0,s2
   11120:	613000ef          	jal	11f32 <_free_r>
   11124:	0109bb03          	ld	s6,16(s3)
   11128:	000ba703          	lw	a4,0(s7)
   1112c:	008b3783          	ld	a5,8(s6)
   11130:	bb85                	j	10ea0 <_malloc_r+0x25a>
   11132:	020a0a13          	add	s4,s4,32
   11136:	b31d                	j	10e5c <_malloc_r+0x216>
   11138:	4026d69b          	sraw	a3,a3,0x2
   1113c:	4785                	li	a5,1
   1113e:	00d797b3          	sll	a5,a5,a3
   11142:	8d5d                	or	a0,a0,a5
   11144:	00a9b423          	sd	a0,8(s3)
   11148:	b3cd                	j	10f2a <_malloc_r+0x2e4>
   1114a:	014b0c33          	add	s8,s6,s4
   1114e:	41800c33          	neg	s8,s8
   11152:	1c52                	sll	s8,s8,0x34
   11154:	034c5c13          	srl	s8,s8,0x34
   11158:	85e2                	mv	a1,s8
   1115a:	854a                	mv	a0,s2
   1115c:	76e000ef          	jal	118ca <_sbrk_r>
   11160:	57fd                	li	a5,-1
   11162:	4681                	li	a3,0
   11164:	f6f514e3          	bne	a0,a5,110cc <_malloc_r+0x486>
   11168:	bf85                	j	110d8 <_malloc_r+0x492>
   1116a:	05400693          	li	a3,84
   1116e:	04e6e163          	bltu	a3,a4,111b0 <_malloc_r+0x56a>
   11172:	00c7d713          	srl	a4,a5,0xc
   11176:	06f7059b          	addw	a1,a4,111
   1117a:	0015959b          	sllw	a1,a1,0x1
   1117e:	06e7069b          	addw	a3,a4,110
   11182:	058e                	sll	a1,a1,0x3
   11184:	b369                	j	10f0e <_malloc_r+0x2c8>
   11186:	15400713          	li	a4,340
   1118a:	04f76163          	bltu	a4,a5,111cc <_malloc_r+0x586>
   1118e:	00f4d793          	srl	a5,s1,0xf
   11192:	0787861b          	addw	a2,a5,120
   11196:	0016169b          	sllw	a3,a2,0x1
   1119a:	0777851b          	addw	a0,a5,119
   1119e:	068e                	sll	a3,a3,0x3
   111a0:	b6b5                	j	10d0c <_malloc_r+0xc6>
   111a2:	7761b423          	sd	s6,1896(gp) # 146c0 <__malloc_sbrk_base>
   111a6:	bdd5                	j	1109a <_malloc_r+0x454>
   111a8:	4785                	li	a5,1
   111aa:	00fb3423          	sd	a5,8(s6)
   111ae:	b5bd                	j	1101c <_malloc_r+0x3d6>
   111b0:	15400693          	li	a3,340
   111b4:	04e6e063          	bltu	a3,a4,111f4 <_malloc_r+0x5ae>
   111b8:	00f7d713          	srl	a4,a5,0xf
   111bc:	0787059b          	addw	a1,a4,120
   111c0:	0015959b          	sllw	a1,a1,0x1
   111c4:	0777069b          	addw	a3,a4,119
   111c8:	058e                	sll	a1,a1,0x3
   111ca:	b391                	j	10f0e <_malloc_r+0x2c8>
   111cc:	55400713          	li	a4,1364
   111d0:	04f76063          	bltu	a4,a5,11210 <_malloc_r+0x5ca>
   111d4:	0124d793          	srl	a5,s1,0x12
   111d8:	07d7861b          	addw	a2,a5,125
   111dc:	0016169b          	sllw	a3,a2,0x1
   111e0:	07c7851b          	addw	a0,a5,124
   111e4:	068e                	sll	a3,a3,0x3
   111e6:	b61d                	j	10d0c <_malloc_r+0xc6>
   111e8:	1cc1                	add	s9,s9,-16
   111ea:	9a66                	add	s4,s4,s9
   111ec:	416a0a33          	sub	s4,s4,s6
   111f0:	4681                	li	a3,0
   111f2:	b5dd                	j	110d8 <_malloc_r+0x492>
   111f4:	55400693          	li	a3,1364
   111f8:	02e6e363          	bltu	a3,a4,1121e <_malloc_r+0x5d8>
   111fc:	0127d713          	srl	a4,a5,0x12
   11200:	07d7059b          	addw	a1,a4,125
   11204:	0015959b          	sllw	a1,a1,0x1
   11208:	07c7069b          	addw	a3,a4,124
   1120c:	058e                	sll	a1,a1,0x3
   1120e:	b301                	j	10f0e <_malloc_r+0x2c8>
   11210:	7f000693          	li	a3,2032
   11214:	07f00613          	li	a2,127
   11218:	07e00513          	li	a0,126
   1121c:	bcc5                	j	10d0c <_malloc_r+0xc6>
   1121e:	7f000593          	li	a1,2032
   11222:	07e00693          	li	a3,126
   11226:	b1e5                	j	10f0e <_malloc_r+0x2c8>
   11228:	0089b783          	ld	a5,8(s3)
   1122c:	b52d                	j	11056 <_malloc_r+0x410>

000000000001122e <memchr>:
   1122e:	00757793          	and	a5,a0,7
   11232:	0ff5f693          	zext.b	a3,a1
   11236:	c785                	beqz	a5,1125e <memchr+0x30>
   11238:	fff60793          	add	a5,a2,-1
   1123c:	ce19                	beqz	a2,1125a <memchr+0x2c>
   1123e:	567d                	li	a2,-1
   11240:	a801                	j	11250 <memchr+0x22>
   11242:	0505                	add	a0,a0,1
   11244:	00757713          	and	a4,a0,7
   11248:	cf01                	beqz	a4,11260 <memchr+0x32>
   1124a:	17fd                	add	a5,a5,-1
   1124c:	00c78763          	beq	a5,a2,1125a <memchr+0x2c>
   11250:	00054703          	lbu	a4,0(a0)
   11254:	fed717e3          	bne	a4,a3,11242 <memchr+0x14>
   11258:	8082                	ret
   1125a:	4501                	li	a0,0
   1125c:	8082                	ret
   1125e:	87b2                	mv	a5,a2
   11260:	471d                	li	a4,7
   11262:	04f77163          	bgeu	a4,a5,112a4 <memchr+0x76>
   11266:	0ff5f593          	zext.b	a1,a1
   1126a:	00859713          	sll	a4,a1,0x8
   1126e:	972e                	add	a4,a4,a1
   11270:	01071593          	sll	a1,a4,0x10
   11274:	95ba                	add	a1,a1,a4
   11276:	7401b883          	ld	a7,1856(gp) # 14698 <__SDATA_BEGIN__+0x8>
   1127a:	7481b803          	ld	a6,1864(gp) # 146a0 <__SDATA_BEGIN__+0x10>
   1127e:	02059713          	sll	a4,a1,0x20
   11282:	95ba                	add	a1,a1,a4
   11284:	431d                	li	t1,7
   11286:	a029                	j	11290 <memchr+0x62>
   11288:	17e1                	add	a5,a5,-8
   1128a:	0521                	add	a0,a0,8
   1128c:	00f37c63          	bgeu	t1,a5,112a4 <memchr+0x76>
   11290:	6118                	ld	a4,0(a0)
   11292:	8f2d                	xor	a4,a4,a1
   11294:	01170633          	add	a2,a4,a7
   11298:	fff74713          	not	a4,a4
   1129c:	8f71                	and	a4,a4,a2
   1129e:	01077733          	and	a4,a4,a6
   112a2:	d37d                	beqz	a4,11288 <memchr+0x5a>
   112a4:	00f50733          	add	a4,a0,a5
   112a8:	e789                	bnez	a5,112b2 <memchr+0x84>
   112aa:	bf45                	j	1125a <memchr+0x2c>
   112ac:	0505                	add	a0,a0,1
   112ae:	faa706e3          	beq	a4,a0,1125a <memchr+0x2c>
   112b2:	00054783          	lbu	a5,0(a0)
   112b6:	fed79be3          	bne	a5,a3,112ac <memchr+0x7e>
   112ba:	8082                	ret

00000000000112bc <memcpy>:
   112bc:	00b547b3          	xor	a5,a0,a1
   112c0:	8b9d                	and	a5,a5,7
   112c2:	00c508b3          	add	a7,a0,a2
   112c6:	e7b1                	bnez	a5,11312 <memcpy+0x56>
   112c8:	479d                	li	a5,7
   112ca:	04c7f463          	bgeu	a5,a2,11312 <memcpy+0x56>
   112ce:	00757793          	and	a5,a0,7
   112d2:	872a                	mv	a4,a0
   112d4:	ebb9                	bnez	a5,1132a <memcpy+0x6e>
   112d6:	ff88f613          	and	a2,a7,-8
   112da:	40e606b3          	sub	a3,a2,a4
   112de:	04000793          	li	a5,64
   112e2:	06d7c863          	blt	a5,a3,11352 <memcpy+0x96>
   112e6:	86ae                	mv	a3,a1
   112e8:	87ba                	mv	a5,a4
   112ea:	02c77163          	bgeu	a4,a2,1130c <memcpy+0x50>
   112ee:	0006b803          	ld	a6,0(a3)
   112f2:	07a1                	add	a5,a5,8
   112f4:	06a1                	add	a3,a3,8
   112f6:	ff07bc23          	sd	a6,-8(a5)
   112fa:	fec7eae3          	bltu	a5,a2,112ee <memcpy+0x32>
   112fe:	fff60793          	add	a5,a2,-1
   11302:	8f99                	sub	a5,a5,a4
   11304:	9be1                	and	a5,a5,-8
   11306:	07a1                	add	a5,a5,8
   11308:	973e                	add	a4,a4,a5
   1130a:	95be                	add	a1,a1,a5
   1130c:	01176663          	bltu	a4,a7,11318 <memcpy+0x5c>
   11310:	8082                	ret
   11312:	872a                	mv	a4,a0
   11314:	03157e63          	bgeu	a0,a7,11350 <memcpy+0x94>
   11318:	0005c783          	lbu	a5,0(a1)
   1131c:	0705                	add	a4,a4,1
   1131e:	0585                	add	a1,a1,1
   11320:	fef70fa3          	sb	a5,-1(a4)
   11324:	fee89ae3          	bne	a7,a4,11318 <memcpy+0x5c>
   11328:	8082                	ret
   1132a:	0005c683          	lbu	a3,0(a1)
   1132e:	0705                	add	a4,a4,1
   11330:	00777793          	and	a5,a4,7
   11334:	fed70fa3          	sb	a3,-1(a4)
   11338:	0585                	add	a1,a1,1
   1133a:	dfd1                	beqz	a5,112d6 <memcpy+0x1a>
   1133c:	0005c683          	lbu	a3,0(a1)
   11340:	0705                	add	a4,a4,1
   11342:	00777793          	and	a5,a4,7
   11346:	fed70fa3          	sb	a3,-1(a4)
   1134a:	0585                	add	a1,a1,1
   1134c:	fff9                	bnez	a5,1132a <memcpy+0x6e>
   1134e:	b761                	j	112d6 <memcpy+0x1a>
   11350:	8082                	ret
   11352:	1141                	add	sp,sp,-16
   11354:	e422                	sd	s0,8(sp)
   11356:	04000413          	li	s0,64
   1135a:	0005b383          	ld	t2,0(a1)
   1135e:	0085b283          	ld	t0,8(a1)
   11362:	0105bf83          	ld	t6,16(a1)
   11366:	0185bf03          	ld	t5,24(a1)
   1136a:	0205be83          	ld	t4,32(a1)
   1136e:	0285be03          	ld	t3,40(a1)
   11372:	0305b303          	ld	t1,48(a1)
   11376:	0385b803          	ld	a6,56(a1)
   1137a:	61b4                	ld	a3,64(a1)
   1137c:	04870713          	add	a4,a4,72
   11380:	40e607b3          	sub	a5,a2,a4
   11384:	fa773c23          	sd	t2,-72(a4)
   11388:	fc573023          	sd	t0,-64(a4)
   1138c:	fdf73423          	sd	t6,-56(a4)
   11390:	fde73823          	sd	t5,-48(a4)
   11394:	fdd73c23          	sd	t4,-40(a4)
   11398:	ffc73023          	sd	t3,-32(a4)
   1139c:	fe673423          	sd	t1,-24(a4)
   113a0:	ff073823          	sd	a6,-16(a4)
   113a4:	fed73c23          	sd	a3,-8(a4)
   113a8:	04858593          	add	a1,a1,72
   113ac:	faf447e3          	blt	s0,a5,1135a <memcpy+0x9e>
   113b0:	86ae                	mv	a3,a1
   113b2:	87ba                	mv	a5,a4
   113b4:	02c77163          	bgeu	a4,a2,113d6 <memcpy+0x11a>
   113b8:	0006b803          	ld	a6,0(a3)
   113bc:	07a1                	add	a5,a5,8
   113be:	06a1                	add	a3,a3,8
   113c0:	ff07bc23          	sd	a6,-8(a5)
   113c4:	fec7eae3          	bltu	a5,a2,113b8 <memcpy+0xfc>
   113c8:	fff60793          	add	a5,a2,-1
   113cc:	8f99                	sub	a5,a5,a4
   113ce:	9be1                	and	a5,a5,-8
   113d0:	07a1                	add	a5,a5,8
   113d2:	973e                	add	a4,a4,a5
   113d4:	95be                	add	a1,a1,a5
   113d6:	01176563          	bltu	a4,a7,113e0 <memcpy+0x124>
   113da:	6422                	ld	s0,8(sp)
   113dc:	0141                	add	sp,sp,16
   113de:	8082                	ret
   113e0:	0005c783          	lbu	a5,0(a1)
   113e4:	0705                	add	a4,a4,1
   113e6:	0585                	add	a1,a1,1
   113e8:	fef70fa3          	sb	a5,-1(a4)
   113ec:	fee887e3          	beq	a7,a4,113da <memcpy+0x11e>
   113f0:	0005c783          	lbu	a5,0(a1)
   113f4:	0705                	add	a4,a4,1
   113f6:	0585                	add	a1,a1,1
   113f8:	fef70fa3          	sb	a5,-1(a4)
   113fc:	fee892e3          	bne	a7,a4,113e0 <memcpy+0x124>
   11400:	bfe9                	j	113da <memcpy+0x11e>

0000000000011402 <memmove>:
   11402:	02a5f263          	bgeu	a1,a0,11426 <memmove+0x24>
   11406:	00c58733          	add	a4,a1,a2
   1140a:	00e57e63          	bgeu	a0,a4,11426 <memmove+0x24>
   1140e:	00c507b3          	add	a5,a0,a2
   11412:	ca1d                	beqz	a2,11448 <memmove+0x46>
   11414:	fff74683          	lbu	a3,-1(a4)
   11418:	17fd                	add	a5,a5,-1
   1141a:	177d                	add	a4,a4,-1
   1141c:	00d78023          	sb	a3,0(a5)
   11420:	fef51ae3          	bne	a0,a5,11414 <memmove+0x12>
   11424:	8082                	ret
   11426:	47fd                	li	a5,31
   11428:	02c7e163          	bltu	a5,a2,1144a <memmove+0x48>
   1142c:	87aa                	mv	a5,a0
   1142e:	fff60693          	add	a3,a2,-1
   11432:	c24d                	beqz	a2,114d4 <memmove+0xd2>
   11434:	0685                	add	a3,a3,1
   11436:	96be                	add	a3,a3,a5
   11438:	0005c703          	lbu	a4,0(a1)
   1143c:	0785                	add	a5,a5,1
   1143e:	0585                	add	a1,a1,1
   11440:	fee78fa3          	sb	a4,-1(a5)
   11444:	fed79ae3          	bne	a5,a3,11438 <memmove+0x36>
   11448:	8082                	ret
   1144a:	00b567b3          	or	a5,a0,a1
   1144e:	8b9d                	and	a5,a5,7
   11450:	efb5                	bnez	a5,114cc <memmove+0xca>
   11452:	fe060893          	add	a7,a2,-32
   11456:	fe08f893          	and	a7,a7,-32
   1145a:	02088893          	add	a7,a7,32
   1145e:	011507b3          	add	a5,a0,a7
   11462:	86ae                	mv	a3,a1
   11464:	872a                	mv	a4,a0
   11466:	0006b803          	ld	a6,0(a3)
   1146a:	02068693          	add	a3,a3,32
   1146e:	02070713          	add	a4,a4,32
   11472:	ff073023          	sd	a6,-32(a4)
   11476:	fe86b803          	ld	a6,-24(a3)
   1147a:	ff073423          	sd	a6,-24(a4)
   1147e:	ff06b803          	ld	a6,-16(a3)
   11482:	ff073823          	sd	a6,-16(a4)
   11486:	ff86b803          	ld	a6,-8(a3)
   1148a:	ff073c23          	sd	a6,-8(a4)
   1148e:	fcf71ce3          	bne	a4,a5,11466 <memmove+0x64>
   11492:	01867713          	and	a4,a2,24
   11496:	95c6                	add	a1,a1,a7
   11498:	01f67813          	and	a6,a2,31
   1149c:	cf0d                	beqz	a4,114d6 <memmove+0xd4>
   1149e:	86ae                	mv	a3,a1
   114a0:	873e                	mv	a4,a5
   114a2:	01078eb3          	add	t4,a5,a6
   114a6:	4e1d                	li	t3,7
   114a8:	0006b303          	ld	t1,0(a3)
   114ac:	0721                	add	a4,a4,8
   114ae:	40ee88b3          	sub	a7,t4,a4
   114b2:	fe673c23          	sd	t1,-8(a4)
   114b6:	06a1                	add	a3,a3,8
   114b8:	ff1e68e3          	bltu	t3,a7,114a8 <memmove+0xa6>
   114bc:	ff880713          	add	a4,a6,-8
   114c0:	9b61                	and	a4,a4,-8
   114c2:	0721                	add	a4,a4,8
   114c4:	8a1d                	and	a2,a2,7
   114c6:	97ba                	add	a5,a5,a4
   114c8:	95ba                	add	a1,a1,a4
   114ca:	b795                	j	1142e <memmove+0x2c>
   114cc:	fff60693          	add	a3,a2,-1
   114d0:	87aa                	mv	a5,a0
   114d2:	b78d                	j	11434 <memmove+0x32>
   114d4:	8082                	ret
   114d6:	8642                	mv	a2,a6
   114d8:	bf99                	j	1142e <memmove+0x2c>

00000000000114da <__malloc_lock>:
   114da:	8082                	ret

00000000000114dc <__malloc_unlock>:
   114dc:	8082                	ret

00000000000114de <_realloc_r>:
   114de:	715d                	add	sp,sp,-80
   114e0:	f84a                	sd	s2,48(sp)
   114e2:	e486                	sd	ra,72(sp)
   114e4:	e0a2                	sd	s0,64(sp)
   114e6:	fc26                	sd	s1,56(sp)
   114e8:	f44e                	sd	s3,40(sp)
   114ea:	f052                	sd	s4,32(sp)
   114ec:	ec56                	sd	s5,24(sp)
   114ee:	e85a                	sd	s6,16(sp)
   114f0:	e45e                	sd	s7,8(sp)
   114f2:	e062                	sd	s8,0(sp)
   114f4:	8932                	mv	s2,a2
   114f6:	14058863          	beqz	a1,11646 <_realloc_r+0x168>
   114fa:	842e                	mv	s0,a1
   114fc:	89aa                	mv	s3,a0
   114fe:	fddff0ef          	jal	114da <__malloc_lock>
   11502:	ff843783          	ld	a5,-8(s0)
   11506:	01790493          	add	s1,s2,23
   1150a:	02e00713          	li	a4,46
   1150e:	ff040a93          	add	s5,s0,-16
   11512:	ffc7fa13          	and	s4,a5,-4
   11516:	0a977d63          	bgeu	a4,s1,115d0 <_realloc_r+0xf2>
   1151a:	80000737          	lui	a4,0x80000
   1151e:	98c1                	and	s1,s1,-16
   11520:	fff74713          	not	a4,a4
   11524:	0a976a63          	bltu	a4,s1,115d8 <_realloc_r+0xfa>
   11528:	0b24e863          	bltu	s1,s2,115d8 <_realloc_r+0xfa>
   1152c:	0c9a5063          	bge	s4,s1,115ec <_realloc_r+0x10e>
   11530:	6751                	lui	a4,0x14
   11532:	e8070c13          	add	s8,a4,-384 # 13e80 <__malloc_av_>
   11536:	010c3603          	ld	a2,16(s8)
   1153a:	014a86b3          	add	a3,s5,s4
   1153e:	6698                	ld	a4,8(a3)
   11540:	14d60263          	beq	a2,a3,11684 <_realloc_r+0x1a6>
   11544:	ffe77613          	and	a2,a4,-2
   11548:	9636                	add	a2,a2,a3
   1154a:	6610                	ld	a2,8(a2)
   1154c:	8a05                	and	a2,a2,1
   1154e:	e275                	bnez	a2,11632 <_realloc_r+0x154>
   11550:	9b71                	and	a4,a4,-4
   11552:	00ea0633          	add	a2,s4,a4
   11556:	08965663          	bge	a2,s1,115e2 <_realloc_r+0x104>
   1155a:	8b85                	and	a5,a5,1
   1155c:	e38d                	bnez	a5,1157e <_realloc_r+0xa0>
   1155e:	ff043b83          	ld	s7,-16(s0)
   11562:	417a8bb3          	sub	s7,s5,s7
   11566:	008bb783          	ld	a5,8(s7)
   1156a:	9bf1                	and	a5,a5,-4
   1156c:	973e                	add	a4,a4,a5
   1156e:	01470b33          	add	s6,a4,s4
   11572:	249b5163          	bge	s6,s1,117b4 <_realloc_r+0x2d6>
   11576:	00fa0b33          	add	s6,s4,a5
   1157a:	1c9b5663          	bge	s6,s1,11746 <_realloc_r+0x268>
   1157e:	85ca                	mv	a1,s2
   11580:	854e                	mv	a0,s3
   11582:	ec4ff0ef          	jal	10c46 <_malloc_r>
   11586:	892a                	mv	s2,a0
   11588:	2e050563          	beqz	a0,11872 <_realloc_r+0x394>
   1158c:	ff843783          	ld	a5,-8(s0)
   11590:	ff050713          	add	a4,a0,-16
   11594:	9bf9                	and	a5,a5,-2
   11596:	97d6                	add	a5,a5,s5
   11598:	1ae78263          	beq	a5,a4,1173c <_realloc_r+0x25e>
   1159c:	ff8a0613          	add	a2,s4,-8
   115a0:	04800793          	li	a5,72
   115a4:	20c7e463          	bltu	a5,a2,117ac <_realloc_r+0x2ce>
   115a8:	02700713          	li	a4,39
   115ac:	16c76b63          	bltu	a4,a2,11722 <_realloc_r+0x244>
   115b0:	87aa                	mv	a5,a0
   115b2:	8722                	mv	a4,s0
   115b4:	6314                	ld	a3,0(a4)
   115b6:	e394                	sd	a3,0(a5)
   115b8:	6714                	ld	a3,8(a4)
   115ba:	e794                	sd	a3,8(a5)
   115bc:	6b18                	ld	a4,16(a4)
   115be:	eb98                	sd	a4,16(a5)
   115c0:	854e                	mv	a0,s3
   115c2:	85a2                	mv	a1,s0
   115c4:	16f000ef          	jal	11f32 <_free_r>
   115c8:	854e                	mv	a0,s3
   115ca:	f13ff0ef          	jal	114dc <__malloc_unlock>
   115ce:	a0a9                	j	11618 <_realloc_r+0x13a>
   115d0:	02000493          	li	s1,32
   115d4:	f524fce3          	bgeu	s1,s2,1152c <_realloc_r+0x4e>
   115d8:	47b1                	li	a5,12
   115da:	00f9a023          	sw	a5,0(s3)
   115de:	4901                	li	s2,0
   115e0:	a825                	j	11618 <_realloc_r+0x13a>
   115e2:	6e9c                	ld	a5,24(a3)
   115e4:	6a98                	ld	a4,16(a3)
   115e6:	8a32                	mv	s4,a2
   115e8:	ef1c                	sd	a5,24(a4)
   115ea:	eb98                	sd	a4,16(a5)
   115ec:	008ab783          	ld	a5,8(s5)
   115f0:	409a06b3          	sub	a3,s4,s1
   115f4:	467d                	li	a2,31
   115f6:	8b85                	and	a5,a5,1
   115f8:	014a8733          	add	a4,s5,s4
   115fc:	06d66363          	bltu	a2,a3,11662 <_realloc_r+0x184>
   11600:	0147e7b3          	or	a5,a5,s4
   11604:	00fab423          	sd	a5,8(s5)
   11608:	671c                	ld	a5,8(a4)
   1160a:	0017e793          	or	a5,a5,1
   1160e:	e71c                	sd	a5,8(a4)
   11610:	854e                	mv	a0,s3
   11612:	ecbff0ef          	jal	114dc <__malloc_unlock>
   11616:	8922                	mv	s2,s0
   11618:	60a6                	ld	ra,72(sp)
   1161a:	6406                	ld	s0,64(sp)
   1161c:	74e2                	ld	s1,56(sp)
   1161e:	79a2                	ld	s3,40(sp)
   11620:	7a02                	ld	s4,32(sp)
   11622:	6ae2                	ld	s5,24(sp)
   11624:	6b42                	ld	s6,16(sp)
   11626:	6ba2                	ld	s7,8(sp)
   11628:	6c02                	ld	s8,0(sp)
   1162a:	854a                	mv	a0,s2
   1162c:	7942                	ld	s2,48(sp)
   1162e:	6161                	add	sp,sp,80
   11630:	8082                	ret
   11632:	8b85                	and	a5,a5,1
   11634:	f7a9                	bnez	a5,1157e <_realloc_r+0xa0>
   11636:	ff043b83          	ld	s7,-16(s0)
   1163a:	417a8bb3          	sub	s7,s5,s7
   1163e:	008bb783          	ld	a5,8(s7)
   11642:	9bf1                	and	a5,a5,-4
   11644:	bf0d                	j	11576 <_realloc_r+0x98>
   11646:	6406                	ld	s0,64(sp)
   11648:	60a6                	ld	ra,72(sp)
   1164a:	74e2                	ld	s1,56(sp)
   1164c:	7942                	ld	s2,48(sp)
   1164e:	79a2                	ld	s3,40(sp)
   11650:	7a02                	ld	s4,32(sp)
   11652:	6ae2                	ld	s5,24(sp)
   11654:	6b42                	ld	s6,16(sp)
   11656:	6ba2                	ld	s7,8(sp)
   11658:	6c02                	ld	s8,0(sp)
   1165a:	85b2                	mv	a1,a2
   1165c:	6161                	add	sp,sp,80
   1165e:	de8ff06f          	j	10c46 <_malloc_r>
   11662:	8fc5                	or	a5,a5,s1
   11664:	00fab423          	sd	a5,8(s5)
   11668:	009a85b3          	add	a1,s5,s1
   1166c:	0016e693          	or	a3,a3,1
   11670:	e594                	sd	a3,8(a1)
   11672:	671c                	ld	a5,8(a4)
   11674:	05c1                	add	a1,a1,16
   11676:	854e                	mv	a0,s3
   11678:	0017e793          	or	a5,a5,1
   1167c:	e71c                	sd	a5,8(a4)
   1167e:	0b5000ef          	jal	11f32 <_free_r>
   11682:	b779                	j	11610 <_realloc_r+0x132>
   11684:	9b71                	and	a4,a4,-4
   11686:	014706b3          	add	a3,a4,s4
   1168a:	02048613          	add	a2,s1,32
   1168e:	1ac6da63          	bge	a3,a2,11842 <_realloc_r+0x364>
   11692:	8b85                	and	a5,a5,1
   11694:	ee0795e3          	bnez	a5,1157e <_realloc_r+0xa0>
   11698:	ff043b83          	ld	s7,-16(s0)
   1169c:	417a8bb3          	sub	s7,s5,s7
   116a0:	008bb783          	ld	a5,8(s7)
   116a4:	9bf1                	and	a5,a5,-4
   116a6:	973e                	add	a4,a4,a5
   116a8:	01470b33          	add	s6,a4,s4
   116ac:	eccb45e3          	blt	s6,a2,11576 <_realloc_r+0x98>
   116b0:	018bb783          	ld	a5,24(s7)
   116b4:	010bb703          	ld	a4,16(s7)
   116b8:	ff8a0613          	add	a2,s4,-8
   116bc:	04800693          	li	a3,72
   116c0:	ef1c                	sd	a5,24(a4)
   116c2:	eb98                	sd	a4,16(a5)
   116c4:	010b8913          	add	s2,s7,16
   116c8:	1cc6e363          	bltu	a3,a2,1188e <_realloc_r+0x3b0>
   116cc:	02700713          	li	a4,39
   116d0:	87ca                	mv	a5,s2
   116d2:	00c77f63          	bgeu	a4,a2,116f0 <_realloc_r+0x212>
   116d6:	6018                	ld	a4,0(s0)
   116d8:	03700793          	li	a5,55
   116dc:	00ebb823          	sd	a4,16(s7)
   116e0:	6418                	ld	a4,8(s0)
   116e2:	00ebbc23          	sd	a4,24(s7)
   116e6:	1ac7e963          	bltu	a5,a2,11898 <_realloc_r+0x3ba>
   116ea:	0441                	add	s0,s0,16
   116ec:	020b8793          	add	a5,s7,32
   116f0:	6018                	ld	a4,0(s0)
   116f2:	e398                	sd	a4,0(a5)
   116f4:	6418                	ld	a4,8(s0)
   116f6:	e798                	sd	a4,8(a5)
   116f8:	6818                	ld	a4,16(s0)
   116fa:	eb98                	sd	a4,16(a5)
   116fc:	009b8733          	add	a4,s7,s1
   11700:	409b07b3          	sub	a5,s6,s1
   11704:	00ec3823          	sd	a4,16(s8)
   11708:	0017e793          	or	a5,a5,1
   1170c:	e71c                	sd	a5,8(a4)
   1170e:	008bb783          	ld	a5,8(s7)
   11712:	854e                	mv	a0,s3
   11714:	8b85                	and	a5,a5,1
   11716:	8fc5                	or	a5,a5,s1
   11718:	00fbb423          	sd	a5,8(s7)
   1171c:	dc1ff0ef          	jal	114dc <__malloc_unlock>
   11720:	bde5                	j	11618 <_realloc_r+0x13a>
   11722:	6014                	ld	a3,0(s0)
   11724:	03700713          	li	a4,55
   11728:	e114                	sd	a3,0(a0)
   1172a:	6414                	ld	a3,8(s0)
   1172c:	e514                	sd	a3,8(a0)
   1172e:	0ec76f63          	bltu	a4,a2,1182c <_realloc_r+0x34e>
   11732:	01040713          	add	a4,s0,16
   11736:	01050793          	add	a5,a0,16
   1173a:	bdad                	j	115b4 <_realloc_r+0xd6>
   1173c:	ff853783          	ld	a5,-8(a0)
   11740:	9bf1                	and	a5,a5,-4
   11742:	9a3e                	add	s4,s4,a5
   11744:	b565                	j	115ec <_realloc_r+0x10e>
   11746:	018bb783          	ld	a5,24(s7)
   1174a:	010bb703          	ld	a4,16(s7)
   1174e:	ff8a0613          	add	a2,s4,-8
   11752:	04800693          	li	a3,72
   11756:	ef1c                	sd	a5,24(a4)
   11758:	eb98                	sd	a4,16(a5)
   1175a:	010b8913          	add	s2,s7,16
   1175e:	0cc6e263          	bltu	a3,a2,11822 <_realloc_r+0x344>
   11762:	02700713          	li	a4,39
   11766:	87ca                	mv	a5,s2
   11768:	02c77863          	bgeu	a4,a2,11798 <_realloc_r+0x2ba>
   1176c:	6018                	ld	a4,0(s0)
   1176e:	03700793          	li	a5,55
   11772:	00ebb823          	sd	a4,16(s7)
   11776:	6418                	ld	a4,8(s0)
   11778:	00ebbc23          	sd	a4,24(s7)
   1177c:	0ec7f763          	bgeu	a5,a2,1186a <_realloc_r+0x38c>
   11780:	681c                	ld	a5,16(s0)
   11782:	02fbb023          	sd	a5,32(s7)
   11786:	6c1c                	ld	a5,24(s0)
   11788:	02fbb423          	sd	a5,40(s7)
   1178c:	06d60f63          	beq	a2,a3,1180a <_realloc_r+0x32c>
   11790:	02040413          	add	s0,s0,32
   11794:	030b8793          	add	a5,s7,48
   11798:	6018                	ld	a4,0(s0)
   1179a:	e398                	sd	a4,0(a5)
   1179c:	6418                	ld	a4,8(s0)
   1179e:	e798                	sd	a4,8(a5)
   117a0:	6818                	ld	a4,16(s0)
   117a2:	eb98                	sd	a4,16(a5)
   117a4:	844a                	mv	s0,s2
   117a6:	8a5a                	mv	s4,s6
   117a8:	8ade                	mv	s5,s7
   117aa:	b589                	j	115ec <_realloc_r+0x10e>
   117ac:	85a2                	mv	a1,s0
   117ae:	c55ff0ef          	jal	11402 <memmove>
   117b2:	b539                	j	115c0 <_realloc_r+0xe2>
   117b4:	6e9c                	ld	a5,24(a3)
   117b6:	6a98                	ld	a4,16(a3)
   117b8:	ff8a0613          	add	a2,s4,-8
   117bc:	04800693          	li	a3,72
   117c0:	ef1c                	sd	a5,24(a4)
   117c2:	eb98                	sd	a4,16(a5)
   117c4:	010bb703          	ld	a4,16(s7)
   117c8:	018bb783          	ld	a5,24(s7)
   117cc:	010b8913          	add	s2,s7,16
   117d0:	ef1c                	sd	a5,24(a4)
   117d2:	eb98                	sd	a4,16(a5)
   117d4:	04c6e763          	bltu	a3,a2,11822 <_realloc_r+0x344>
   117d8:	02700713          	li	a4,39
   117dc:	87ca                	mv	a5,s2
   117de:	fac77de3          	bgeu	a4,a2,11798 <_realloc_r+0x2ba>
   117e2:	6018                	ld	a4,0(s0)
   117e4:	03700793          	li	a5,55
   117e8:	00ebb823          	sd	a4,16(s7)
   117ec:	6418                	ld	a4,8(s0)
   117ee:	00ebbc23          	sd	a4,24(s7)
   117f2:	06c7fc63          	bgeu	a5,a2,1186a <_realloc_r+0x38c>
   117f6:	6818                	ld	a4,16(s0)
   117f8:	04800793          	li	a5,72
   117fc:	02ebb023          	sd	a4,32(s7)
   11800:	6c18                	ld	a4,24(s0)
   11802:	02ebb423          	sd	a4,40(s7)
   11806:	f8f615e3          	bne	a2,a5,11790 <_realloc_r+0x2b2>
   1180a:	7018                	ld	a4,32(s0)
   1180c:	040b8793          	add	a5,s7,64
   11810:	03040413          	add	s0,s0,48
   11814:	02ebb823          	sd	a4,48(s7)
   11818:	ff843703          	ld	a4,-8(s0)
   1181c:	02ebbc23          	sd	a4,56(s7)
   11820:	bfa5                	j	11798 <_realloc_r+0x2ba>
   11822:	85a2                	mv	a1,s0
   11824:	854a                	mv	a0,s2
   11826:	bddff0ef          	jal	11402 <memmove>
   1182a:	bfad                	j	117a4 <_realloc_r+0x2c6>
   1182c:	6818                	ld	a4,16(s0)
   1182e:	e918                	sd	a4,16(a0)
   11830:	6c18                	ld	a4,24(s0)
   11832:	ed18                	sd	a4,24(a0)
   11834:	04f60463          	beq	a2,a5,1187c <_realloc_r+0x39e>
   11838:	02040713          	add	a4,s0,32
   1183c:	02050793          	add	a5,a0,32
   11840:	bb95                	j	115b4 <_realloc_r+0xd6>
   11842:	9aa6                	add	s5,s5,s1
   11844:	409687b3          	sub	a5,a3,s1
   11848:	015c3823          	sd	s5,16(s8)
   1184c:	0017e793          	or	a5,a5,1
   11850:	00fab423          	sd	a5,8(s5)
   11854:	ff843783          	ld	a5,-8(s0)
   11858:	854e                	mv	a0,s3
   1185a:	8922                	mv	s2,s0
   1185c:	8b85                	and	a5,a5,1
   1185e:	8fc5                	or	a5,a5,s1
   11860:	fef43c23          	sd	a5,-8(s0)
   11864:	c79ff0ef          	jal	114dc <__malloc_unlock>
   11868:	bb45                	j	11618 <_realloc_r+0x13a>
   1186a:	0441                	add	s0,s0,16
   1186c:	020b8793          	add	a5,s7,32
   11870:	b725                	j	11798 <_realloc_r+0x2ba>
   11872:	854e                	mv	a0,s3
   11874:	c69ff0ef          	jal	114dc <__malloc_unlock>
   11878:	4901                	li	s2,0
   1187a:	bb79                	j	11618 <_realloc_r+0x13a>
   1187c:	7014                	ld	a3,32(s0)
   1187e:	03040713          	add	a4,s0,48
   11882:	03050793          	add	a5,a0,48
   11886:	f114                	sd	a3,32(a0)
   11888:	7414                	ld	a3,40(s0)
   1188a:	f514                	sd	a3,40(a0)
   1188c:	b325                	j	115b4 <_realloc_r+0xd6>
   1188e:	85a2                	mv	a1,s0
   11890:	854a                	mv	a0,s2
   11892:	b71ff0ef          	jal	11402 <memmove>
   11896:	b59d                	j	116fc <_realloc_r+0x21e>
   11898:	681c                	ld	a5,16(s0)
   1189a:	02fbb023          	sd	a5,32(s7)
   1189e:	6c1c                	ld	a5,24(s0)
   118a0:	02fbb423          	sd	a5,40(s7)
   118a4:	00d60763          	beq	a2,a3,118b2 <_realloc_r+0x3d4>
   118a8:	02040413          	add	s0,s0,32
   118ac:	030b8793          	add	a5,s7,48
   118b0:	b581                	j	116f0 <_realloc_r+0x212>
   118b2:	7018                	ld	a4,32(s0)
   118b4:	040b8793          	add	a5,s7,64
   118b8:	03040413          	add	s0,s0,48
   118bc:	02ebb823          	sd	a4,48(s7)
   118c0:	ff843703          	ld	a4,-8(s0)
   118c4:	02ebbc23          	sd	a4,56(s7)
   118c8:	b525                	j	116f0 <_realloc_r+0x212>

00000000000118ca <_sbrk_r>:
   118ca:	1101                	add	sp,sp,-32
   118cc:	e822                	sd	s0,16(sp)
   118ce:	e426                	sd	s1,8(sp)
   118d0:	842a                	mv	s0,a0
   118d2:	852e                	mv	a0,a1
   118d4:	ec06                	sd	ra,24(sp)
   118d6:	7801a823          	sw	zero,1936(gp) # 146e8 <errno>
   118da:	541000ef          	jal	1261a <_sbrk>
   118de:	57fd                	li	a5,-1
   118e0:	00f50763          	beq	a0,a5,118ee <_sbrk_r+0x24>
   118e4:	60e2                	ld	ra,24(sp)
   118e6:	6442                	ld	s0,16(sp)
   118e8:	64a2                	ld	s1,8(sp)
   118ea:	6105                	add	sp,sp,32
   118ec:	8082                	ret
   118ee:	7901a783          	lw	a5,1936(gp) # 146e8 <errno>
   118f2:	dbed                	beqz	a5,118e4 <_sbrk_r+0x1a>
   118f4:	60e2                	ld	ra,24(sp)
   118f6:	c01c                	sw	a5,0(s0)
   118f8:	6442                	ld	s0,16(sp)
   118fa:	64a2                	ld	s1,8(sp)
   118fc:	6105                	add	sp,sp,32
   118fe:	8082                	ret

0000000000011900 <__sread>:
   11900:	1141                	add	sp,sp,-16
   11902:	e022                	sd	s0,0(sp)
   11904:	842e                	mv	s0,a1
   11906:	01259583          	lh	a1,18(a1)
   1190a:	e406                	sd	ra,8(sp)
   1190c:	247000ef          	jal	12352 <_read_r>
   11910:	00054963          	bltz	a0,11922 <__sread+0x22>
   11914:	685c                	ld	a5,144(s0)
   11916:	60a2                	ld	ra,8(sp)
   11918:	97aa                	add	a5,a5,a0
   1191a:	e85c                	sd	a5,144(s0)
   1191c:	6402                	ld	s0,0(sp)
   1191e:	0141                	add	sp,sp,16
   11920:	8082                	ret
   11922:	01045783          	lhu	a5,16(s0)
   11926:	777d                	lui	a4,0xfffff
   11928:	177d                	add	a4,a4,-1 # ffffffffffffefff <__BSS_END__+0xfffffffffffea8a7>
   1192a:	8ff9                	and	a5,a5,a4
   1192c:	60a2                	ld	ra,8(sp)
   1192e:	00f41823          	sh	a5,16(s0)
   11932:	6402                	ld	s0,0(sp)
   11934:	0141                	add	sp,sp,16
   11936:	8082                	ret

0000000000011938 <__seofread>:
   11938:	4501                	li	a0,0
   1193a:	8082                	ret

000000000001193c <__swrite>:
   1193c:	01059783          	lh	a5,16(a1)
   11940:	7179                	add	sp,sp,-48
   11942:	f022                	sd	s0,32(sp)
   11944:	ec26                	sd	s1,24(sp)
   11946:	e84a                	sd	s2,16(sp)
   11948:	e44e                	sd	s3,8(sp)
   1194a:	f406                	sd	ra,40(sp)
   1194c:	1007f713          	and	a4,a5,256
   11950:	842e                	mv	s0,a1
   11952:	84aa                	mv	s1,a0
   11954:	8932                	mv	s2,a2
   11956:	89b6                	mv	s3,a3
   11958:	e315                	bnez	a4,1197c <__swrite+0x40>
   1195a:	777d                	lui	a4,0xfffff
   1195c:	177d                	add	a4,a4,-1 # ffffffffffffefff <__BSS_END__+0xfffffffffffea8a7>
   1195e:	8ff9                	and	a5,a5,a4
   11960:	01241583          	lh	a1,18(s0)
   11964:	00f41823          	sh	a5,16(s0)
   11968:	7402                	ld	s0,32(sp)
   1196a:	70a2                	ld	ra,40(sp)
   1196c:	86ce                	mv	a3,s3
   1196e:	864a                	mv	a2,s2
   11970:	69a2                	ld	s3,8(sp)
   11972:	6942                	ld	s2,16(sp)
   11974:	8526                	mv	a0,s1
   11976:	64e2                	ld	s1,24(sp)
   11978:	6145                	add	sp,sp,48
   1197a:	a0b5                	j	119e6 <_write_r>
   1197c:	01259583          	lh	a1,18(a1)
   11980:	4689                	li	a3,2
   11982:	4601                	li	a2,0
   11984:	7f6000ef          	jal	1217a <_lseek_r>
   11988:	01041783          	lh	a5,16(s0)
   1198c:	b7f9                	j	1195a <__swrite+0x1e>

000000000001198e <__sseek>:
   1198e:	1141                	add	sp,sp,-16
   11990:	e022                	sd	s0,0(sp)
   11992:	842e                	mv	s0,a1
   11994:	01259583          	lh	a1,18(a1)
   11998:	e406                	sd	ra,8(sp)
   1199a:	7e0000ef          	jal	1217a <_lseek_r>
   1199e:	57fd                	li	a5,-1
   119a0:	02f50163          	beq	a0,a5,119c2 <__sseek+0x34>
   119a4:	01045783          	lhu	a5,16(s0)
   119a8:	6705                	lui	a4,0x1
   119aa:	60a2                	ld	ra,8(sp)
   119ac:	8fd9                	or	a5,a5,a4
   119ae:	0107979b          	sllw	a5,a5,0x10
   119b2:	4107d79b          	sraw	a5,a5,0x10
   119b6:	e848                	sd	a0,144(s0)
   119b8:	00f41823          	sh	a5,16(s0)
   119bc:	6402                	ld	s0,0(sp)
   119be:	0141                	add	sp,sp,16
   119c0:	8082                	ret
   119c2:	01045783          	lhu	a5,16(s0)
   119c6:	777d                	lui	a4,0xfffff
   119c8:	177d                	add	a4,a4,-1 # ffffffffffffefff <__BSS_END__+0xfffffffffffea8a7>
   119ca:	8ff9                	and	a5,a5,a4
   119cc:	0107979b          	sllw	a5,a5,0x10
   119d0:	4107d79b          	sraw	a5,a5,0x10
   119d4:	60a2                	ld	ra,8(sp)
   119d6:	00f41823          	sh	a5,16(s0)
   119da:	6402                	ld	s0,0(sp)
   119dc:	0141                	add	sp,sp,16
   119de:	8082                	ret

00000000000119e0 <__sclose>:
   119e0:	01259583          	lh	a1,18(a1)
   119e4:	aa41                	j	11b74 <_close_r>

00000000000119e6 <_write_r>:
   119e6:	1101                	add	sp,sp,-32
   119e8:	872e                	mv	a4,a1
   119ea:	e822                	sd	s0,16(sp)
   119ec:	e426                	sd	s1,8(sp)
   119ee:	85b2                	mv	a1,a2
   119f0:	842a                	mv	s0,a0
   119f2:	8636                	mv	a2,a3
   119f4:	853a                	mv	a0,a4
   119f6:	ec06                	sd	ra,24(sp)
   119f8:	7801a823          	sw	zero,1936(gp) # 146e8 <errno>
   119fc:	473000ef          	jal	1266e <_write>
   11a00:	57fd                	li	a5,-1
   11a02:	00f50763          	beq	a0,a5,11a10 <_write_r+0x2a>
   11a06:	60e2                	ld	ra,24(sp)
   11a08:	6442                	ld	s0,16(sp)
   11a0a:	64a2                	ld	s1,8(sp)
   11a0c:	6105                	add	sp,sp,32
   11a0e:	8082                	ret
   11a10:	7901a783          	lw	a5,1936(gp) # 146e8 <errno>
   11a14:	dbed                	beqz	a5,11a06 <_write_r+0x20>
   11a16:	60e2                	ld	ra,24(sp)
   11a18:	c01c                	sw	a5,0(s0)
   11a1a:	6442                	ld	s0,16(sp)
   11a1c:	64a2                	ld	s1,8(sp)
   11a1e:	6105                	add	sp,sp,32
   11a20:	8082                	ret

0000000000011a22 <__swsetup_r>:
   11a22:	7601b783          	ld	a5,1888(gp) # 146b8 <_impure_ptr>
   11a26:	1101                	add	sp,sp,-32
   11a28:	e822                	sd	s0,16(sp)
   11a2a:	e426                	sd	s1,8(sp)
   11a2c:	ec06                	sd	ra,24(sp)
   11a2e:	84aa                	mv	s1,a0
   11a30:	842e                	mv	s0,a1
   11a32:	c399                	beqz	a5,11a38 <__swsetup_r+0x16>
   11a34:	4bb8                	lw	a4,80(a5)
   11a36:	cb29                	beqz	a4,11a88 <__swsetup_r+0x66>
   11a38:	01041783          	lh	a5,16(s0)
   11a3c:	0087f713          	and	a4,a5,8
   11a40:	cf21                	beqz	a4,11a98 <__swsetup_r+0x76>
   11a42:	6c18                	ld	a4,24(s0)
   11a44:	c735                	beqz	a4,11ab0 <__swsetup_r+0x8e>
   11a46:	0017f693          	and	a3,a5,1
   11a4a:	ce91                	beqz	a3,11a66 <__swsetup_r+0x44>
   11a4c:	5014                	lw	a3,32(s0)
   11a4e:	00042623          	sw	zero,12(s0)
   11a52:	4501                	li	a0,0
   11a54:	40d006bb          	negw	a3,a3
   11a58:	d414                	sw	a3,40(s0)
   11a5a:	cf11                	beqz	a4,11a76 <__swsetup_r+0x54>
   11a5c:	60e2                	ld	ra,24(sp)
   11a5e:	6442                	ld	s0,16(sp)
   11a60:	64a2                	ld	s1,8(sp)
   11a62:	6105                	add	sp,sp,32
   11a64:	8082                	ret
   11a66:	0027f693          	and	a3,a5,2
   11a6a:	4601                	li	a2,0
   11a6c:	e291                	bnez	a3,11a70 <__swsetup_r+0x4e>
   11a6e:	5010                	lw	a2,32(s0)
   11a70:	c450                	sw	a2,12(s0)
   11a72:	4501                	li	a0,0
   11a74:	f765                	bnez	a4,11a5c <__swsetup_r+0x3a>
   11a76:	0807f713          	and	a4,a5,128
   11a7a:	d36d                	beqz	a4,11a5c <__swsetup_r+0x3a>
   11a7c:	0407e793          	or	a5,a5,64
   11a80:	00f41823          	sh	a5,16(s0)
   11a84:	557d                	li	a0,-1
   11a86:	bfd9                	j	11a5c <__swsetup_r+0x3a>
   11a88:	853e                	mv	a0,a5
   11a8a:	d33fe0ef          	jal	107bc <__sinit>
   11a8e:	01041783          	lh	a5,16(s0)
   11a92:	0087f713          	and	a4,a5,8
   11a96:	f755                	bnez	a4,11a42 <__swsetup_r+0x20>
   11a98:	0107f713          	and	a4,a5,16
   11a9c:	cf21                	beqz	a4,11af4 <__swsetup_r+0xd2>
   11a9e:	0047f713          	and	a4,a5,4
   11aa2:	e70d                	bnez	a4,11acc <__swsetup_r+0xaa>
   11aa4:	6c18                	ld	a4,24(s0)
   11aa6:	0087e793          	or	a5,a5,8
   11aaa:	00f41823          	sh	a5,16(s0)
   11aae:	ff41                	bnez	a4,11a46 <__swsetup_r+0x24>
   11ab0:	2807f693          	and	a3,a5,640
   11ab4:	20000613          	li	a2,512
   11ab8:	f8c687e3          	beq	a3,a2,11a46 <__swsetup_r+0x24>
   11abc:	85a2                	mv	a1,s0
   11abe:	8526                	mv	a0,s1
   11ac0:	6f6000ef          	jal	121b6 <__smakebuf_r>
   11ac4:	01041783          	lh	a5,16(s0)
   11ac8:	6c18                	ld	a4,24(s0)
   11aca:	bfb5                	j	11a46 <__swsetup_r+0x24>
   11acc:	6c2c                	ld	a1,88(s0)
   11ace:	cd81                	beqz	a1,11ae6 <__swsetup_r+0xc4>
   11ad0:	07440713          	add	a4,s0,116
   11ad4:	00e58763          	beq	a1,a4,11ae2 <__swsetup_r+0xc0>
   11ad8:	8526                	mv	a0,s1
   11ada:	458000ef          	jal	11f32 <_free_r>
   11ade:	01041783          	lh	a5,16(s0)
   11ae2:	04043c23          	sd	zero,88(s0)
   11ae6:	6c18                	ld	a4,24(s0)
   11ae8:	fdb7f793          	and	a5,a5,-37
   11aec:	00042423          	sw	zero,8(s0)
   11af0:	e018                	sd	a4,0(s0)
   11af2:	bf55                	j	11aa6 <__swsetup_r+0x84>
   11af4:	4725                	li	a4,9
   11af6:	c098                	sw	a4,0(s1)
   11af8:	0407e793          	or	a5,a5,64
   11afc:	b751                	j	11a80 <__swsetup_r+0x5e>

0000000000011afe <__register_exitproc>:
   11afe:	7501b703          	ld	a4,1872(gp) # 146a8 <_global_impure_ptr>
   11b02:	1f873783          	ld	a5,504(a4)
   11b06:	c3b1                	beqz	a5,11b4a <__register_exitproc+0x4c>
   11b08:	4798                	lw	a4,8(a5)
   11b0a:	487d                	li	a6,31
   11b0c:	06e84263          	blt	a6,a4,11b70 <__register_exitproc+0x72>
   11b10:	c505                	beqz	a0,11b38 <__register_exitproc+0x3a>
   11b12:	00371813          	sll	a6,a4,0x3
   11b16:	983e                	add	a6,a6,a5
   11b18:	10c83823          	sd	a2,272(a6)
   11b1c:	3107a883          	lw	a7,784(a5)
   11b20:	4605                	li	a2,1
   11b22:	00e6163b          	sllw	a2,a2,a4
   11b26:	00c8e8b3          	or	a7,a7,a2
   11b2a:	3117a823          	sw	a7,784(a5)
   11b2e:	20d83823          	sd	a3,528(a6)
   11b32:	4689                	li	a3,2
   11b34:	02d50063          	beq	a0,a3,11b54 <__register_exitproc+0x56>
   11b38:	00270693          	add	a3,a4,2
   11b3c:	068e                	sll	a3,a3,0x3
   11b3e:	2705                	addw	a4,a4,1
   11b40:	c798                	sw	a4,8(a5)
   11b42:	97b6                	add	a5,a5,a3
   11b44:	e38c                	sd	a1,0(a5)
   11b46:	4501                	li	a0,0
   11b48:	8082                	ret
   11b4a:	20070793          	add	a5,a4,512
   11b4e:	1ef73c23          	sd	a5,504(a4)
   11b52:	bf5d                	j	11b08 <__register_exitproc+0xa>
   11b54:	3147a683          	lw	a3,788(a5)
   11b58:	4501                	li	a0,0
   11b5a:	8ed1                	or	a3,a3,a2
   11b5c:	30d7aa23          	sw	a3,788(a5)
   11b60:	00270693          	add	a3,a4,2
   11b64:	068e                	sll	a3,a3,0x3
   11b66:	2705                	addw	a4,a4,1
   11b68:	c798                	sw	a4,8(a5)
   11b6a:	97b6                	add	a5,a5,a3
   11b6c:	e38c                	sd	a1,0(a5)
   11b6e:	8082                	ret
   11b70:	557d                	li	a0,-1
   11b72:	8082                	ret

0000000000011b74 <_close_r>:
   11b74:	1101                	add	sp,sp,-32
   11b76:	e822                	sd	s0,16(sp)
   11b78:	e426                	sd	s1,8(sp)
   11b7a:	842a                	mv	s0,a0
   11b7c:	852e                	mv	a0,a1
   11b7e:	ec06                	sd	ra,24(sp)
   11b80:	7801a823          	sw	zero,1936(gp) # 146e8 <errno>
   11b84:	18b000ef          	jal	1250e <_close>
   11b88:	57fd                	li	a5,-1
   11b8a:	00f50763          	beq	a0,a5,11b98 <_close_r+0x24>
   11b8e:	60e2                	ld	ra,24(sp)
   11b90:	6442                	ld	s0,16(sp)
   11b92:	64a2                	ld	s1,8(sp)
   11b94:	6105                	add	sp,sp,32
   11b96:	8082                	ret
   11b98:	7901a783          	lw	a5,1936(gp) # 146e8 <errno>
   11b9c:	dbed                	beqz	a5,11b8e <_close_r+0x1a>
   11b9e:	60e2                	ld	ra,24(sp)
   11ba0:	c01c                	sw	a5,0(s0)
   11ba2:	6442                	ld	s0,16(sp)
   11ba4:	64a2                	ld	s1,8(sp)
   11ba6:	6105                	add	sp,sp,32
   11ba8:	8082                	ret

0000000000011baa <_fclose_r>:
   11baa:	1101                	add	sp,sp,-32
   11bac:	ec06                	sd	ra,24(sp)
   11bae:	e822                	sd	s0,16(sp)
   11bb0:	e426                	sd	s1,8(sp)
   11bb2:	e04a                	sd	s2,0(sp)
   11bb4:	c989                	beqz	a1,11bc6 <_fclose_r+0x1c>
   11bb6:	842e                	mv	s0,a1
   11bb8:	84aa                	mv	s1,a0
   11bba:	c119                	beqz	a0,11bc0 <_fclose_r+0x16>
   11bbc:	493c                	lw	a5,80(a0)
   11bbe:	cfa5                	beqz	a5,11c36 <_fclose_r+0x8c>
   11bc0:	01041783          	lh	a5,16(s0)
   11bc4:	eb89                	bnez	a5,11bd6 <_fclose_r+0x2c>
   11bc6:	60e2                	ld	ra,24(sp)
   11bc8:	6442                	ld	s0,16(sp)
   11bca:	4901                	li	s2,0
   11bcc:	64a2                	ld	s1,8(sp)
   11bce:	854a                	mv	a0,s2
   11bd0:	6902                	ld	s2,0(sp)
   11bd2:	6105                	add	sp,sp,32
   11bd4:	8082                	ret
   11bd6:	85a2                	mv	a1,s0
   11bd8:	8526                	mv	a0,s1
   11bda:	086000ef          	jal	11c60 <__sflush_r>
   11bde:	683c                	ld	a5,80(s0)
   11be0:	892a                	mv	s2,a0
   11be2:	c791                	beqz	a5,11bee <_fclose_r+0x44>
   11be4:	780c                	ld	a1,48(s0)
   11be6:	8526                	mv	a0,s1
   11be8:	9782                	jalr	a5
   11bea:	04054c63          	bltz	a0,11c42 <_fclose_r+0x98>
   11bee:	01045783          	lhu	a5,16(s0)
   11bf2:	0807f793          	and	a5,a5,128
   11bf6:	efa1                	bnez	a5,11c4e <_fclose_r+0xa4>
   11bf8:	6c2c                	ld	a1,88(s0)
   11bfa:	c991                	beqz	a1,11c0e <_fclose_r+0x64>
   11bfc:	07440793          	add	a5,s0,116
   11c00:	00f58563          	beq	a1,a5,11c0a <_fclose_r+0x60>
   11c04:	8526                	mv	a0,s1
   11c06:	32c000ef          	jal	11f32 <_free_r>
   11c0a:	04043c23          	sd	zero,88(s0)
   11c0e:	7c2c                	ld	a1,120(s0)
   11c10:	c591                	beqz	a1,11c1c <_fclose_r+0x72>
   11c12:	8526                	mv	a0,s1
   11c14:	31e000ef          	jal	11f32 <_free_r>
   11c18:	06043c23          	sd	zero,120(s0)
   11c1c:	ba9fe0ef          	jal	107c4 <__sfp_lock_acquire>
   11c20:	00041823          	sh	zero,16(s0)
   11c24:	ba3fe0ef          	jal	107c6 <__sfp_lock_release>
   11c28:	60e2                	ld	ra,24(sp)
   11c2a:	6442                	ld	s0,16(sp)
   11c2c:	64a2                	ld	s1,8(sp)
   11c2e:	854a                	mv	a0,s2
   11c30:	6902                	ld	s2,0(sp)
   11c32:	6105                	add	sp,sp,32
   11c34:	8082                	ret
   11c36:	b87fe0ef          	jal	107bc <__sinit>
   11c3a:	01041783          	lh	a5,16(s0)
   11c3e:	d7c1                	beqz	a5,11bc6 <_fclose_r+0x1c>
   11c40:	bf59                	j	11bd6 <_fclose_r+0x2c>
   11c42:	01045783          	lhu	a5,16(s0)
   11c46:	597d                	li	s2,-1
   11c48:	0807f793          	and	a5,a5,128
   11c4c:	d7d5                	beqz	a5,11bf8 <_fclose_r+0x4e>
   11c4e:	6c0c                	ld	a1,24(s0)
   11c50:	8526                	mv	a0,s1
   11c52:	2e0000ef          	jal	11f32 <_free_r>
   11c56:	b74d                	j	11bf8 <_fclose_r+0x4e>

0000000000011c58 <fclose>:
   11c58:	85aa                	mv	a1,a0
   11c5a:	7601b503          	ld	a0,1888(gp) # 146b8 <_impure_ptr>
   11c5e:	b7b1                	j	11baa <_fclose_r>

0000000000011c60 <__sflush_r>:
   11c60:	01059783          	lh	a5,16(a1)
   11c64:	7179                	add	sp,sp,-48
   11c66:	f022                	sd	s0,32(sp)
   11c68:	e44e                	sd	s3,8(sp)
   11c6a:	f406                	sd	ra,40(sp)
   11c6c:	ec26                	sd	s1,24(sp)
   11c6e:	e84a                	sd	s2,16(sp)
   11c70:	0087f713          	and	a4,a5,8
   11c74:	842e                	mv	s0,a1
   11c76:	89aa                	mv	s3,a0
   11c78:	e369                	bnez	a4,11d3a <__sflush_r+0xda>
   11c7a:	6705                	lui	a4,0x1
   11c7c:	80070713          	add	a4,a4,-2048 # 800 <exit-0xf8e8>
   11c80:	4594                	lw	a3,8(a1)
   11c82:	8f5d                	or	a4,a4,a5
   11c84:	00e59823          	sh	a4,16(a1)
   11c88:	10d05463          	blez	a3,11d90 <__sflush_r+0x130>
   11c8c:	04843803          	ld	a6,72(s0)
   11c90:	08080d63          	beqz	a6,11d2a <__sflush_r+0xca>
   11c94:	83b1                	srl	a5,a5,0xc
   11c96:	0009a483          	lw	s1,0(s3)
   11c9a:	8b85                	and	a5,a5,1
   11c9c:	0009a023          	sw	zero,0(s3)
   11ca0:	780c                	ld	a1,48(s0)
   11ca2:	efe5                	bnez	a5,11d9a <__sflush_r+0x13a>
   11ca4:	4601                	li	a2,0
   11ca6:	4685                	li	a3,1
   11ca8:	854e                	mv	a0,s3
   11caa:	9802                	jalr	a6
   11cac:	57fd                	li	a5,-1
   11cae:	862a                	mv	a2,a0
   11cb0:	10f50863          	beq	a0,a5,11dc0 <__sflush_r+0x160>
   11cb4:	01041703          	lh	a4,16(s0)
   11cb8:	04843803          	ld	a6,72(s0)
   11cbc:	780c                	ld	a1,48(s0)
   11cbe:	8b11                	and	a4,a4,4
   11cc0:	c719                	beqz	a4,11cce <__sflush_r+0x6e>
   11cc2:	4418                	lw	a4,8(s0)
   11cc4:	6c3c                	ld	a5,88(s0)
   11cc6:	8e19                	sub	a2,a2,a4
   11cc8:	c399                	beqz	a5,11cce <__sflush_r+0x6e>
   11cca:	583c                	lw	a5,112(s0)
   11ccc:	8e1d                	sub	a2,a2,a5
   11cce:	4681                	li	a3,0
   11cd0:	854e                	mv	a0,s3
   11cd2:	9802                	jalr	a6
   11cd4:	57fd                	li	a5,-1
   11cd6:	0cf51463          	bne	a0,a5,11d9e <__sflush_r+0x13e>
   11cda:	0009a683          	lw	a3,0(s3)
   11cde:	47f5                	li	a5,29
   11ce0:	08d7ea63          	bltu	a5,a3,11d74 <__sflush_r+0x114>
   11ce4:	dfc00737          	lui	a4,0xdfc00
   11ce8:	1779                	add	a4,a4,-2 # ffffffffdfbffffe <__BSS_END__+0xffffffffdfbeb8a6>
   11cea:	40d75733          	sra	a4,a4,a3
   11cee:	8b05                	and	a4,a4,1
   11cf0:	01041783          	lh	a5,16(s0)
   11cf4:	e351                	bnez	a4,11d78 <__sflush_r+0x118>
   11cf6:	6c10                	ld	a2,24(s0)
   11cf8:	777d                	lui	a4,0xfffff
   11cfa:	7ff70713          	add	a4,a4,2047 # fffffffffffff7ff <__BSS_END__+0xfffffffffffeb0a7>
   11cfe:	8f7d                	and	a4,a4,a5
   11d00:	83b1                	srl	a5,a5,0xc
   11d02:	00e41823          	sh	a4,16(s0)
   11d06:	00042423          	sw	zero,8(s0)
   11d0a:	e010                	sd	a2,0(s0)
   11d0c:	8b85                	and	a5,a5,1
   11d0e:	e7f9                	bnez	a5,11ddc <__sflush_r+0x17c>
   11d10:	6c2c                	ld	a1,88(s0)
   11d12:	0099a023          	sw	s1,0(s3)
   11d16:	c991                	beqz	a1,11d2a <__sflush_r+0xca>
   11d18:	07440793          	add	a5,s0,116
   11d1c:	00f58563          	beq	a1,a5,11d26 <__sflush_r+0xc6>
   11d20:	854e                	mv	a0,s3
   11d22:	210000ef          	jal	11f32 <_free_r>
   11d26:	04043c23          	sd	zero,88(s0)
   11d2a:	4501                	li	a0,0
   11d2c:	70a2                	ld	ra,40(sp)
   11d2e:	7402                	ld	s0,32(sp)
   11d30:	64e2                	ld	s1,24(sp)
   11d32:	6942                	ld	s2,16(sp)
   11d34:	69a2                	ld	s3,8(sp)
   11d36:	6145                	add	sp,sp,48
   11d38:	8082                	ret
   11d3a:	0185b903          	ld	s2,24(a1)
   11d3e:	fe0906e3          	beqz	s2,11d2a <__sflush_r+0xca>
   11d42:	6184                	ld	s1,0(a1)
   11d44:	8b8d                	and	a5,a5,3
   11d46:	0125b023          	sd	s2,0(a1)
   11d4a:	412484bb          	subw	s1,s1,s2
   11d4e:	4701                	li	a4,0
   11d50:	e391                	bnez	a5,11d54 <__sflush_r+0xf4>
   11d52:	5198                	lw	a4,32(a1)
   11d54:	c458                	sw	a4,12(s0)
   11d56:	00904663          	bgtz	s1,11d62 <__sflush_r+0x102>
   11d5a:	bfc1                	j	11d2a <__sflush_r+0xca>
   11d5c:	992a                	add	s2,s2,a0
   11d5e:	fc9056e3          	blez	s1,11d2a <__sflush_r+0xca>
   11d62:	603c                	ld	a5,64(s0)
   11d64:	780c                	ld	a1,48(s0)
   11d66:	86a6                	mv	a3,s1
   11d68:	864a                	mv	a2,s2
   11d6a:	854e                	mv	a0,s3
   11d6c:	9782                	jalr	a5
   11d6e:	9c89                	subw	s1,s1,a0
   11d70:	fea046e3          	bgtz	a0,11d5c <__sflush_r+0xfc>
   11d74:	01041783          	lh	a5,16(s0)
   11d78:	0407e793          	or	a5,a5,64
   11d7c:	70a2                	ld	ra,40(sp)
   11d7e:	00f41823          	sh	a5,16(s0)
   11d82:	7402                	ld	s0,32(sp)
   11d84:	64e2                	ld	s1,24(sp)
   11d86:	6942                	ld	s2,16(sp)
   11d88:	69a2                	ld	s3,8(sp)
   11d8a:	557d                	li	a0,-1
   11d8c:	6145                	add	sp,sp,48
   11d8e:	8082                	ret
   11d90:	59b4                	lw	a3,112(a1)
   11d92:	eed04de3          	bgtz	a3,11c8c <__sflush_r+0x2c>
   11d96:	4501                	li	a0,0
   11d98:	bf51                	j	11d2c <__sflush_r+0xcc>
   11d9a:	6850                	ld	a2,144(s0)
   11d9c:	b70d                	j	11cbe <__sflush_r+0x5e>
   11d9e:	01041783          	lh	a5,16(s0)
   11da2:	6c14                	ld	a3,24(s0)
   11da4:	777d                	lui	a4,0xfffff
   11da6:	7ff70713          	add	a4,a4,2047 # fffffffffffff7ff <__BSS_END__+0xfffffffffffeb0a7>
   11daa:	8f7d                	and	a4,a4,a5
   11dac:	83b1                	srl	a5,a5,0xc
   11dae:	00e41823          	sh	a4,16(s0)
   11db2:	00042423          	sw	zero,8(s0)
   11db6:	e014                	sd	a3,0(s0)
   11db8:	8b85                	and	a5,a5,1
   11dba:	dbb9                	beqz	a5,11d10 <__sflush_r+0xb0>
   11dbc:	e848                	sd	a0,144(s0)
   11dbe:	bf89                	j	11d10 <__sflush_r+0xb0>
   11dc0:	0009a783          	lw	a5,0(s3)
   11dc4:	ee0788e3          	beqz	a5,11cb4 <__sflush_r+0x54>
   11dc8:	4775                	li	a4,29
   11dca:	00e78563          	beq	a5,a4,11dd4 <__sflush_r+0x174>
   11dce:	4759                	li	a4,22
   11dd0:	fae792e3          	bne	a5,a4,11d74 <__sflush_r+0x114>
   11dd4:	0099a023          	sw	s1,0(s3)
   11dd8:	4501                	li	a0,0
   11dda:	bf89                	j	11d2c <__sflush_r+0xcc>
   11ddc:	fa95                	bnez	a3,11d10 <__sflush_r+0xb0>
   11dde:	e848                	sd	a0,144(s0)
   11de0:	bf05                	j	11d10 <__sflush_r+0xb0>

0000000000011de2 <_fflush_r>:
   11de2:	1101                	add	sp,sp,-32
   11de4:	e822                	sd	s0,16(sp)
   11de6:	ec06                	sd	ra,24(sp)
   11de8:	842a                	mv	s0,a0
   11dea:	c119                	beqz	a0,11df0 <_fflush_r+0xe>
   11dec:	493c                	lw	a5,80(a0)
   11dee:	cb89                	beqz	a5,11e00 <_fflush_r+0x1e>
   11df0:	01059783          	lh	a5,16(a1)
   11df4:	ef89                	bnez	a5,11e0e <_fflush_r+0x2c>
   11df6:	60e2                	ld	ra,24(sp)
   11df8:	6442                	ld	s0,16(sp)
   11dfa:	4501                	li	a0,0
   11dfc:	6105                	add	sp,sp,32
   11dfe:	8082                	ret
   11e00:	e42e                	sd	a1,8(sp)
   11e02:	9bbfe0ef          	jal	107bc <__sinit>
   11e06:	65a2                	ld	a1,8(sp)
   11e08:	01059783          	lh	a5,16(a1)
   11e0c:	d7ed                	beqz	a5,11df6 <_fflush_r+0x14>
   11e0e:	8522                	mv	a0,s0
   11e10:	6442                	ld	s0,16(sp)
   11e12:	60e2                	ld	ra,24(sp)
   11e14:	6105                	add	sp,sp,32
   11e16:	b5a9                	j	11c60 <__sflush_r>

0000000000011e18 <fflush>:
   11e18:	cd1d                	beqz	a0,11e56 <fflush+0x3e>
   11e1a:	1101                	add	sp,sp,-32
   11e1c:	e822                	sd	s0,16(sp)
   11e1e:	842a                	mv	s0,a0
   11e20:	7601b503          	ld	a0,1888(gp) # 146b8 <_impure_ptr>
   11e24:	ec06                	sd	ra,24(sp)
   11e26:	c119                	beqz	a0,11e2c <fflush+0x14>
   11e28:	493c                	lw	a5,80(a0)
   11e2a:	cf91                	beqz	a5,11e46 <fflush+0x2e>
   11e2c:	01041783          	lh	a5,16(s0)
   11e30:	e791                	bnez	a5,11e3c <fflush+0x24>
   11e32:	60e2                	ld	ra,24(sp)
   11e34:	6442                	ld	s0,16(sp)
   11e36:	4501                	li	a0,0
   11e38:	6105                	add	sp,sp,32
   11e3a:	8082                	ret
   11e3c:	85a2                	mv	a1,s0
   11e3e:	6442                	ld	s0,16(sp)
   11e40:	60e2                	ld	ra,24(sp)
   11e42:	6105                	add	sp,sp,32
   11e44:	bd31                	j	11c60 <__sflush_r>
   11e46:	e42a                	sd	a0,8(sp)
   11e48:	975fe0ef          	jal	107bc <__sinit>
   11e4c:	01041783          	lh	a5,16(s0)
   11e50:	6522                	ld	a0,8(sp)
   11e52:	d3e5                	beqz	a5,11e32 <fflush+0x1a>
   11e54:	b7e5                	j	11e3c <fflush+0x24>
   11e56:	7501b503          	ld	a0,1872(gp) # 146a8 <_global_impure_ptr>
   11e5a:	65c9                	lui	a1,0x12
   11e5c:	de258593          	add	a1,a1,-542 # 11de2 <_fflush_r>
   11e60:	d63fe06f          	j	10bc2 <_fwalk_reent>

0000000000011e64 <_malloc_trim_r>:
   11e64:	7179                	add	sp,sp,-48
   11e66:	e44e                	sd	s3,8(sp)
   11e68:	69d1                	lui	s3,0x14
   11e6a:	f022                	sd	s0,32(sp)
   11e6c:	ec26                	sd	s1,24(sp)
   11e6e:	e84a                	sd	s2,16(sp)
   11e70:	e052                	sd	s4,0(sp)
   11e72:	f406                	sd	ra,40(sp)
   11e74:	8a2e                	mv	s4,a1
   11e76:	892a                	mv	s2,a0
   11e78:	e8098993          	add	s3,s3,-384 # 13e80 <__malloc_av_>
   11e7c:	e5eff0ef          	jal	114da <__malloc_lock>
   11e80:	0109b703          	ld	a4,16(s3)
   11e84:	6785                	lui	a5,0x1
   11e86:	fdf78413          	add	s0,a5,-33 # fdf <exit-0xf109>
   11e8a:	6704                	ld	s1,8(a4)
   11e8c:	98f1                	and	s1,s1,-4
   11e8e:	9426                	add	s0,s0,s1
   11e90:	41440433          	sub	s0,s0,s4
   11e94:	8031                	srl	s0,s0,0xc
   11e96:	147d                	add	s0,s0,-1
   11e98:	0432                	sll	s0,s0,0xc
   11e9a:	00f44b63          	blt	s0,a5,11eb0 <_malloc_trim_r+0x4c>
   11e9e:	4581                	li	a1,0
   11ea0:	854a                	mv	a0,s2
   11ea2:	a29ff0ef          	jal	118ca <_sbrk_r>
   11ea6:	0109b783          	ld	a5,16(s3)
   11eaa:	97a6                	add	a5,a5,s1
   11eac:	00f50e63          	beq	a0,a5,11ec8 <_malloc_trim_r+0x64>
   11eb0:	854a                	mv	a0,s2
   11eb2:	e2aff0ef          	jal	114dc <__malloc_unlock>
   11eb6:	70a2                	ld	ra,40(sp)
   11eb8:	7402                	ld	s0,32(sp)
   11eba:	64e2                	ld	s1,24(sp)
   11ebc:	6942                	ld	s2,16(sp)
   11ebe:	69a2                	ld	s3,8(sp)
   11ec0:	6a02                	ld	s4,0(sp)
   11ec2:	4501                	li	a0,0
   11ec4:	6145                	add	sp,sp,48
   11ec6:	8082                	ret
   11ec8:	408005b3          	neg	a1,s0
   11ecc:	854a                	mv	a0,s2
   11ece:	9fdff0ef          	jal	118ca <_sbrk_r>
   11ed2:	57fd                	li	a5,-1
   11ed4:	02f50a63          	beq	a0,a5,11f08 <_malloc_trim_r+0xa4>
   11ed8:	67d1                	lui	a5,0x14
   11eda:	73078793          	add	a5,a5,1840 # 14730 <__malloc_current_mallinfo>
   11ede:	4398                	lw	a4,0(a5)
   11ee0:	0109b683          	ld	a3,16(s3)
   11ee4:	8c81                	sub	s1,s1,s0
   11ee6:	0014e493          	or	s1,s1,1
   11eea:	9f01                	subw	a4,a4,s0
   11eec:	854a                	mv	a0,s2
   11eee:	e684                	sd	s1,8(a3)
   11ef0:	c398                	sw	a4,0(a5)
   11ef2:	deaff0ef          	jal	114dc <__malloc_unlock>
   11ef6:	70a2                	ld	ra,40(sp)
   11ef8:	7402                	ld	s0,32(sp)
   11efa:	64e2                	ld	s1,24(sp)
   11efc:	6942                	ld	s2,16(sp)
   11efe:	69a2                	ld	s3,8(sp)
   11f00:	6a02                	ld	s4,0(sp)
   11f02:	4505                	li	a0,1
   11f04:	6145                	add	sp,sp,48
   11f06:	8082                	ret
   11f08:	4581                	li	a1,0
   11f0a:	854a                	mv	a0,s2
   11f0c:	9bfff0ef          	jal	118ca <_sbrk_r>
   11f10:	0109b703          	ld	a4,16(s3)
   11f14:	46fd                	li	a3,31
   11f16:	40e507b3          	sub	a5,a0,a4
   11f1a:	f8f6dbe3          	bge	a3,a5,11eb0 <_malloc_trim_r+0x4c>
   11f1e:	7681b683          	ld	a3,1896(gp) # 146c0 <__malloc_sbrk_base>
   11f22:	0017e793          	or	a5,a5,1
   11f26:	e71c                	sd	a5,8(a4)
   11f28:	8d15                	sub	a0,a0,a3
   11f2a:	66d1                	lui	a3,0x14
   11f2c:	72a6a823          	sw	a0,1840(a3) # 14730 <__malloc_current_mallinfo>
   11f30:	b741                	j	11eb0 <_malloc_trim_r+0x4c>

0000000000011f32 <_free_r>:
   11f32:	12058363          	beqz	a1,12058 <_free_r+0x126>
   11f36:	1101                	add	sp,sp,-32
   11f38:	e822                	sd	s0,16(sp)
   11f3a:	e426                	sd	s1,8(sp)
   11f3c:	842e                	mv	s0,a1
   11f3e:	84aa                	mv	s1,a0
   11f40:	ec06                	sd	ra,24(sp)
   11f42:	d98ff0ef          	jal	114da <__malloc_lock>
   11f46:	ff843503          	ld	a0,-8(s0)
   11f4a:	ff040713          	add	a4,s0,-16
   11f4e:	65d1                	lui	a1,0x14
   11f50:	ffe57793          	and	a5,a0,-2
   11f54:	00f70633          	add	a2,a4,a5
   11f58:	e8058593          	add	a1,a1,-384 # 13e80 <__malloc_av_>
   11f5c:	6614                	ld	a3,8(a2)
   11f5e:	0105b803          	ld	a6,16(a1)
   11f62:	9af1                	and	a3,a3,-4
   11f64:	12c80c63          	beq	a6,a2,1209c <_free_r+0x16a>
   11f68:	e614                	sd	a3,8(a2)
   11f6a:	8905                	and	a0,a0,1
   11f6c:	00d60833          	add	a6,a2,a3
   11f70:	e141                	bnez	a0,11ff0 <_free_r+0xbe>
   11f72:	ff043303          	ld	t1,-16(s0)
   11f76:	00883803          	ld	a6,8(a6)
   11f7a:	6551                	lui	a0,0x14
   11f7c:	40670733          	sub	a4,a4,t1
   11f80:	01073883          	ld	a7,16(a4)
   11f84:	e9050513          	add	a0,a0,-368 # 13e90 <__malloc_av_+0x10>
   11f88:	979a                	add	a5,a5,t1
   11f8a:	00187813          	and	a6,a6,1
   11f8e:	0ea88a63          	beq	a7,a0,12082 <_free_r+0x150>
   11f92:	01873303          	ld	t1,24(a4)
   11f96:	0068bc23          	sd	t1,24(a7)
   11f9a:	01133823          	sd	a7,16(t1)
   11f9e:	12080863          	beqz	a6,120ce <_free_r+0x19c>
   11fa2:	0017e693          	or	a3,a5,1
   11fa6:	e714                	sd	a3,8(a4)
   11fa8:	e21c                	sd	a5,0(a2)
   11faa:	1ff00693          	li	a3,511
   11fae:	04f6ee63          	bltu	a3,a5,1200a <_free_r+0xd8>
   11fb2:	838d                	srl	a5,a5,0x3
   11fb4:	0017869b          	addw	a3,a5,1
   11fb8:	0016969b          	sllw	a3,a3,0x1
   11fbc:	068e                	sll	a3,a3,0x3
   11fbe:	0085b803          	ld	a6,8(a1)
   11fc2:	96ae                	add	a3,a3,a1
   11fc4:	6288                	ld	a0,0(a3)
   11fc6:	4027d61b          	sraw	a2,a5,0x2
   11fca:	4785                	li	a5,1
   11fcc:	00c797b3          	sll	a5,a5,a2
   11fd0:	0107e7b3          	or	a5,a5,a6
   11fd4:	ff068613          	add	a2,a3,-16
   11fd8:	ef10                	sd	a2,24(a4)
   11fda:	eb08                	sd	a0,16(a4)
   11fdc:	e59c                	sd	a5,8(a1)
   11fde:	e298                	sd	a4,0(a3)
   11fe0:	ed18                	sd	a4,24(a0)
   11fe2:	6442                	ld	s0,16(sp)
   11fe4:	60e2                	ld	ra,24(sp)
   11fe6:	8526                	mv	a0,s1
   11fe8:	64a2                	ld	s1,8(sp)
   11fea:	6105                	add	sp,sp,32
   11fec:	cf0ff06f          	j	114dc <__malloc_unlock>
   11ff0:	00883503          	ld	a0,8(a6)
   11ff4:	8905                	and	a0,a0,1
   11ff6:	c135                	beqz	a0,1205a <_free_r+0x128>
   11ff8:	0017e693          	or	a3,a5,1
   11ffc:	fed43c23          	sd	a3,-8(s0)
   12000:	e21c                	sd	a5,0(a2)
   12002:	1ff00693          	li	a3,511
   12006:	faf6f6e3          	bgeu	a3,a5,11fb2 <_free_r+0x80>
   1200a:	0097d693          	srl	a3,a5,0x9
   1200e:	4611                	li	a2,4
   12010:	0cd66163          	bltu	a2,a3,120d2 <_free_r+0x1a0>
   12014:	0067d693          	srl	a3,a5,0x6
   12018:	0396851b          	addw	a0,a3,57
   1201c:	0015151b          	sllw	a0,a0,0x1
   12020:	0386861b          	addw	a2,a3,56
   12024:	050e                	sll	a0,a0,0x3
   12026:	952e                	add	a0,a0,a1
   12028:	6114                	ld	a3,0(a0)
   1202a:	1541                	add	a0,a0,-16
   1202c:	00d51663          	bne	a0,a3,12038 <_free_r+0x106>
   12030:	a0e5                	j	12118 <_free_r+0x1e6>
   12032:	6a94                	ld	a3,16(a3)
   12034:	00d50663          	beq	a0,a3,12040 <_free_r+0x10e>
   12038:	6690                	ld	a2,8(a3)
   1203a:	9a71                	and	a2,a2,-4
   1203c:	fec7ebe3          	bltu	a5,a2,12032 <_free_r+0x100>
   12040:	6e88                	ld	a0,24(a3)
   12042:	ef08                	sd	a0,24(a4)
   12044:	eb14                	sd	a3,16(a4)
   12046:	6442                	ld	s0,16(sp)
   12048:	e918                	sd	a4,16(a0)
   1204a:	60e2                	ld	ra,24(sp)
   1204c:	8526                	mv	a0,s1
   1204e:	64a2                	ld	s1,8(sp)
   12050:	ee98                	sd	a4,24(a3)
   12052:	6105                	add	sp,sp,32
   12054:	c88ff06f          	j	114dc <__malloc_unlock>
   12058:	8082                	ret
   1205a:	6551                	lui	a0,0x14
   1205c:	97b6                	add	a5,a5,a3
   1205e:	e9050513          	add	a0,a0,-368 # 13e90 <__malloc_av_+0x10>
   12062:	6a14                	ld	a3,16(a2)
   12064:	0aa68063          	beq	a3,a0,12104 <_free_r+0x1d2>
   12068:	01863803          	ld	a6,24(a2)
   1206c:	0017e513          	or	a0,a5,1
   12070:	00f70633          	add	a2,a4,a5
   12074:	0106bc23          	sd	a6,24(a3)
   12078:	00d83823          	sd	a3,16(a6)
   1207c:	e708                	sd	a0,8(a4)
   1207e:	e21c                	sd	a5,0(a2)
   12080:	b72d                	j	11faa <_free_r+0x78>
   12082:	0e081763          	bnez	a6,12170 <_free_r+0x23e>
   12086:	6a0c                	ld	a1,16(a2)
   12088:	6e10                	ld	a2,24(a2)
   1208a:	96be                	add	a3,a3,a5
   1208c:	0016e793          	or	a5,a3,1
   12090:	ed90                	sd	a2,24(a1)
   12092:	ea0c                	sd	a1,16(a2)
   12094:	e71c                	sd	a5,8(a4)
   12096:	9736                	add	a4,a4,a3
   12098:	e314                	sd	a3,0(a4)
   1209a:	b7a1                	j	11fe2 <_free_r+0xb0>
   1209c:	8905                	and	a0,a0,1
   1209e:	96be                	add	a3,a3,a5
   120a0:	e909                	bnez	a0,120b2 <_free_r+0x180>
   120a2:	ff043503          	ld	a0,-16(s0)
   120a6:	8f09                	sub	a4,a4,a0
   120a8:	6f1c                	ld	a5,24(a4)
   120aa:	6b10                	ld	a2,16(a4)
   120ac:	96aa                	add	a3,a3,a0
   120ae:	ee1c                	sd	a5,24(a2)
   120b0:	eb90                	sd	a2,16(a5)
   120b2:	0016e613          	or	a2,a3,1
   120b6:	7701b783          	ld	a5,1904(gp) # 146c8 <__malloc_trim_threshold>
   120ba:	e710                	sd	a2,8(a4)
   120bc:	e998                	sd	a4,16(a1)
   120be:	f2f6e2e3          	bltu	a3,a5,11fe2 <_free_r+0xb0>
   120c2:	7881b583          	ld	a1,1928(gp) # 146e0 <__malloc_top_pad>
   120c6:	8526                	mv	a0,s1
   120c8:	d9dff0ef          	jal	11e64 <_malloc_trim_r>
   120cc:	bf19                	j	11fe2 <_free_r+0xb0>
   120ce:	97b6                	add	a5,a5,a3
   120d0:	bf49                	j	12062 <_free_r+0x130>
   120d2:	4651                	li	a2,20
   120d4:	02d67063          	bgeu	a2,a3,120f4 <_free_r+0x1c2>
   120d8:	05400613          	li	a2,84
   120dc:	04d66963          	bltu	a2,a3,1212e <_free_r+0x1fc>
   120e0:	00c7d693          	srl	a3,a5,0xc
   120e4:	06f6851b          	addw	a0,a3,111
   120e8:	0015151b          	sllw	a0,a0,0x1
   120ec:	06e6861b          	addw	a2,a3,110
   120f0:	050e                	sll	a0,a0,0x3
   120f2:	bf15                	j	12026 <_free_r+0xf4>
   120f4:	05c6851b          	addw	a0,a3,92
   120f8:	0015151b          	sllw	a0,a0,0x1
   120fc:	05b6861b          	addw	a2,a3,91
   12100:	050e                	sll	a0,a0,0x3
   12102:	b715                	j	12026 <_free_r+0xf4>
   12104:	f598                	sd	a4,40(a1)
   12106:	f198                	sd	a4,32(a1)
   12108:	0017e693          	or	a3,a5,1
   1210c:	ef08                	sd	a0,24(a4)
   1210e:	eb08                	sd	a0,16(a4)
   12110:	e714                	sd	a3,8(a4)
   12112:	973e                	add	a4,a4,a5
   12114:	e31c                	sd	a5,0(a4)
   12116:	b5f1                	j	11fe2 <_free_r+0xb0>
   12118:	0085b803          	ld	a6,8(a1)
   1211c:	4026561b          	sraw	a2,a2,0x2
   12120:	4785                	li	a5,1
   12122:	00c797b3          	sll	a5,a5,a2
   12126:	0107e7b3          	or	a5,a5,a6
   1212a:	e59c                	sd	a5,8(a1)
   1212c:	bf19                	j	12042 <_free_r+0x110>
   1212e:	15400613          	li	a2,340
   12132:	00d66c63          	bltu	a2,a3,1214a <_free_r+0x218>
   12136:	00f7d693          	srl	a3,a5,0xf
   1213a:	0786851b          	addw	a0,a3,120
   1213e:	0015151b          	sllw	a0,a0,0x1
   12142:	0776861b          	addw	a2,a3,119
   12146:	050e                	sll	a0,a0,0x3
   12148:	bdf9                	j	12026 <_free_r+0xf4>
   1214a:	55400613          	li	a2,1364
   1214e:	00d66c63          	bltu	a2,a3,12166 <_free_r+0x234>
   12152:	0127d693          	srl	a3,a5,0x12
   12156:	07d6851b          	addw	a0,a3,125
   1215a:	0015151b          	sllw	a0,a0,0x1
   1215e:	07c6861b          	addw	a2,a3,124
   12162:	050e                	sll	a0,a0,0x3
   12164:	b5c9                	j	12026 <_free_r+0xf4>
   12166:	7f000513          	li	a0,2032
   1216a:	07e00613          	li	a2,126
   1216e:	bd65                	j	12026 <_free_r+0xf4>
   12170:	0017e693          	or	a3,a5,1
   12174:	e714                	sd	a3,8(a4)
   12176:	e21c                	sd	a5,0(a2)
   12178:	b5ad                	j	11fe2 <_free_r+0xb0>

000000000001217a <_lseek_r>:
   1217a:	1101                	add	sp,sp,-32
   1217c:	872e                	mv	a4,a1
   1217e:	e822                	sd	s0,16(sp)
   12180:	e426                	sd	s1,8(sp)
   12182:	85b2                	mv	a1,a2
   12184:	842a                	mv	s0,a0
   12186:	8636                	mv	a2,a3
   12188:	853a                	mv	a0,a4
   1218a:	ec06                	sd	ra,24(sp)
   1218c:	7801a823          	sw	zero,1936(gp) # 146e8 <errno>
   12190:	432000ef          	jal	125c2 <_lseek>
   12194:	57fd                	li	a5,-1
   12196:	00f50763          	beq	a0,a5,121a4 <_lseek_r+0x2a>
   1219a:	60e2                	ld	ra,24(sp)
   1219c:	6442                	ld	s0,16(sp)
   1219e:	64a2                	ld	s1,8(sp)
   121a0:	6105                	add	sp,sp,32
   121a2:	8082                	ret
   121a4:	7901a783          	lw	a5,1936(gp) # 146e8 <errno>
   121a8:	dbed                	beqz	a5,1219a <_lseek_r+0x20>
   121aa:	60e2                	ld	ra,24(sp)
   121ac:	c01c                	sw	a5,0(s0)
   121ae:	6442                	ld	s0,16(sp)
   121b0:	64a2                	ld	s1,8(sp)
   121b2:	6105                	add	sp,sp,32
   121b4:	8082                	ret

00000000000121b6 <__smakebuf_r>:
   121b6:	01059783          	lh	a5,16(a1)
   121ba:	7135                	add	sp,sp,-160
   121bc:	e922                	sd	s0,144(sp)
   121be:	ed06                	sd	ra,152(sp)
   121c0:	e526                	sd	s1,136(sp)
   121c2:	e14a                	sd	s2,128(sp)
   121c4:	fcce                	sd	s3,120(sp)
   121c6:	f8d2                	sd	s4,112(sp)
   121c8:	0027f713          	and	a4,a5,2
   121cc:	842e                	mv	s0,a1
   121ce:	cf19                	beqz	a4,121ec <__smakebuf_r+0x36>
   121d0:	07758793          	add	a5,a1,119
   121d4:	e19c                	sd	a5,0(a1)
   121d6:	ed9c                	sd	a5,24(a1)
   121d8:	4785                	li	a5,1
   121da:	d19c                	sw	a5,32(a1)
   121dc:	60ea                	ld	ra,152(sp)
   121de:	644a                	ld	s0,144(sp)
   121e0:	64aa                	ld	s1,136(sp)
   121e2:	690a                	ld	s2,128(sp)
   121e4:	79e6                	ld	s3,120(sp)
   121e6:	7a46                	ld	s4,112(sp)
   121e8:	610d                	add	sp,sp,160
   121ea:	8082                	ret
   121ec:	01259583          	lh	a1,18(a1)
   121f0:	84aa                	mv	s1,a0
   121f2:	0605c863          	bltz	a1,12262 <__smakebuf_r+0xac>
   121f6:	0030                	add	a2,sp,8
   121f8:	2a6000ef          	jal	1249e <_fstat_r>
   121fc:	06054163          	bltz	a0,1225e <__smakebuf_r+0xa8>
   12200:	4932                	lw	s2,12(sp)
   12202:	67bd                	lui	a5,0xf
   12204:	6985                	lui	s3,0x1
   12206:	00f97933          	and	s2,s2,a5
   1220a:	6789                	lui	a5,0x2
   1220c:	40f90933          	sub	s2,s2,a5
   12210:	00193913          	seqz	s2,s2
   12214:	40000a13          	li	s4,1024
   12218:	80098993          	add	s3,s3,-2048 # 800 <exit-0xf8e8>
   1221c:	85d2                	mv	a1,s4
   1221e:	8526                	mv	a0,s1
   12220:	a27fe0ef          	jal	10c46 <_malloc_r>
   12224:	01041783          	lh	a5,16(s0)
   12228:	c939                	beqz	a0,1227e <__smakebuf_r+0xc8>
   1222a:	6741                	lui	a4,0x10
   1222c:	56e70713          	add	a4,a4,1390 # 1056e <_cleanup_r>
   12230:	ecb8                	sd	a4,88(s1)
   12232:	0807e793          	or	a5,a5,128
   12236:	00f41823          	sh	a5,16(s0)
   1223a:	e008                	sd	a0,0(s0)
   1223c:	ec08                	sd	a0,24(s0)
   1223e:	03442023          	sw	s4,32(s0)
   12242:	06091163          	bnez	s2,122a4 <__smakebuf_r+0xee>
   12246:	0137e7b3          	or	a5,a5,s3
   1224a:	60ea                	ld	ra,152(sp)
   1224c:	00f41823          	sh	a5,16(s0)
   12250:	644a                	ld	s0,144(sp)
   12252:	64aa                	ld	s1,136(sp)
   12254:	690a                	ld	s2,128(sp)
   12256:	79e6                	ld	s3,120(sp)
   12258:	7a46                	ld	s4,112(sp)
   1225a:	610d                	add	sp,sp,160
   1225c:	8082                	ret
   1225e:	01041783          	lh	a5,16(s0)
   12262:	0807f793          	and	a5,a5,128
   12266:	4901                	li	s2,0
   12268:	cb95                	beqz	a5,1229c <__smakebuf_r+0xe6>
   1226a:	04000a13          	li	s4,64
   1226e:	85d2                	mv	a1,s4
   12270:	8526                	mv	a0,s1
   12272:	9d5fe0ef          	jal	10c46 <_malloc_r>
   12276:	01041783          	lh	a5,16(s0)
   1227a:	4981                	li	s3,0
   1227c:	f55d                	bnez	a0,1222a <__smakebuf_r+0x74>
   1227e:	2007f713          	and	a4,a5,512
   12282:	ff29                	bnez	a4,121dc <__smakebuf_r+0x26>
   12284:	9bf1                	and	a5,a5,-4
   12286:	0027e793          	or	a5,a5,2
   1228a:	07740713          	add	a4,s0,119
   1228e:	00f41823          	sh	a5,16(s0)
   12292:	4785                	li	a5,1
   12294:	e018                	sd	a4,0(s0)
   12296:	ec18                	sd	a4,24(s0)
   12298:	d01c                	sw	a5,32(s0)
   1229a:	b789                	j	121dc <__smakebuf_r+0x26>
   1229c:	40000a13          	li	s4,1024
   122a0:	4981                	li	s3,0
   122a2:	bfad                	j	1221c <__smakebuf_r+0x66>
   122a4:	01241583          	lh	a1,18(s0)
   122a8:	8526                	mv	a0,s1
   122aa:	22e000ef          	jal	124d8 <_isatty_r>
   122ae:	e501                	bnez	a0,122b6 <__smakebuf_r+0x100>
   122b0:	01041783          	lh	a5,16(s0)
   122b4:	bf49                	j	12246 <__smakebuf_r+0x90>
   122b6:	01045783          	lhu	a5,16(s0)
   122ba:	9bf1                	and	a5,a5,-4
   122bc:	0017e793          	or	a5,a5,1
   122c0:	0107979b          	sllw	a5,a5,0x10
   122c4:	4107d79b          	sraw	a5,a5,0x10
   122c8:	bfbd                	j	12246 <__smakebuf_r+0x90>

00000000000122ca <__swhatbuf_r>:
   122ca:	7175                	add	sp,sp,-144
   122cc:	e122                	sd	s0,128(sp)
   122ce:	842e                	mv	s0,a1
   122d0:	01259583          	lh	a1,18(a1)
   122d4:	fca6                	sd	s1,120(sp)
   122d6:	f8ca                	sd	s2,112(sp)
   122d8:	e506                	sd	ra,136(sp)
   122da:	84b2                	mv	s1,a2
   122dc:	8936                	mv	s2,a3
   122de:	0205cc63          	bltz	a1,12316 <__swhatbuf_r+0x4c>
   122e2:	0030                	add	a2,sp,8
   122e4:	1ba000ef          	jal	1249e <_fstat_r>
   122e8:	02054763          	bltz	a0,12316 <__swhatbuf_r+0x4c>
   122ec:	47b2                	lw	a5,12(sp)
   122ee:	673d                	lui	a4,0xf
   122f0:	60aa                	ld	ra,136(sp)
   122f2:	8ff9                	and	a5,a5,a4
   122f4:	6709                	lui	a4,0x2
   122f6:	8f99                	sub	a5,a5,a4
   122f8:	640a                	ld	s0,128(sp)
   122fa:	0017b793          	seqz	a5,a5
   122fe:	00f92023          	sw	a5,0(s2)
   12302:	40000713          	li	a4,1024
   12306:	e098                	sd	a4,0(s1)
   12308:	6505                	lui	a0,0x1
   1230a:	74e6                	ld	s1,120(sp)
   1230c:	7946                	ld	s2,112(sp)
   1230e:	80050513          	add	a0,a0,-2048 # 800 <exit-0xf8e8>
   12312:	6149                	add	sp,sp,144
   12314:	8082                	ret
   12316:	01045783          	lhu	a5,16(s0)
   1231a:	0807f793          	and	a5,a5,128
   1231e:	cf91                	beqz	a5,1233a <__swhatbuf_r+0x70>
   12320:	60aa                	ld	ra,136(sp)
   12322:	640a                	ld	s0,128(sp)
   12324:	4781                	li	a5,0
   12326:	00f92023          	sw	a5,0(s2)
   1232a:	04000713          	li	a4,64
   1232e:	e098                	sd	a4,0(s1)
   12330:	7946                	ld	s2,112(sp)
   12332:	74e6                	ld	s1,120(sp)
   12334:	4501                	li	a0,0
   12336:	6149                	add	sp,sp,144
   12338:	8082                	ret
   1233a:	60aa                	ld	ra,136(sp)
   1233c:	640a                	ld	s0,128(sp)
   1233e:	00f92023          	sw	a5,0(s2)
   12342:	40000713          	li	a4,1024
   12346:	e098                	sd	a4,0(s1)
   12348:	7946                	ld	s2,112(sp)
   1234a:	74e6                	ld	s1,120(sp)
   1234c:	4501                	li	a0,0
   1234e:	6149                	add	sp,sp,144
   12350:	8082                	ret

0000000000012352 <_read_r>:
   12352:	1101                	add	sp,sp,-32
   12354:	872e                	mv	a4,a1
   12356:	e822                	sd	s0,16(sp)
   12358:	e426                	sd	s1,8(sp)
   1235a:	85b2                	mv	a1,a2
   1235c:	842a                	mv	s0,a0
   1235e:	8636                	mv	a2,a3
   12360:	853a                	mv	a0,a4
   12362:	ec06                	sd	ra,24(sp)
   12364:	7801a823          	sw	zero,1936(gp) # 146e8 <errno>
   12368:	286000ef          	jal	125ee <_read>
   1236c:	57fd                	li	a5,-1
   1236e:	00f50763          	beq	a0,a5,1237c <_read_r+0x2a>
   12372:	60e2                	ld	ra,24(sp)
   12374:	6442                	ld	s0,16(sp)
   12376:	64a2                	ld	s1,8(sp)
   12378:	6105                	add	sp,sp,32
   1237a:	8082                	ret
   1237c:	7901a783          	lw	a5,1936(gp) # 146e8 <errno>
   12380:	dbed                	beqz	a5,12372 <_read_r+0x20>
   12382:	60e2                	ld	ra,24(sp)
   12384:	c01c                	sw	a5,0(s0)
   12386:	6442                	ld	s0,16(sp)
   12388:	64a2                	ld	s1,8(sp)
   1238a:	6105                	add	sp,sp,32
   1238c:	8082                	ret

000000000001238e <cleanup_glue>:
   1238e:	7179                	add	sp,sp,-48
   12390:	e84a                	sd	s2,16(sp)
   12392:	0005b903          	ld	s2,0(a1)
   12396:	f022                	sd	s0,32(sp)
   12398:	ec26                	sd	s1,24(sp)
   1239a:	f406                	sd	ra,40(sp)
   1239c:	e44e                	sd	s3,8(sp)
   1239e:	e052                	sd	s4,0(sp)
   123a0:	842e                	mv	s0,a1
   123a2:	84aa                	mv	s1,a0
   123a4:	02090b63          	beqz	s2,123da <cleanup_glue+0x4c>
   123a8:	00093983          	ld	s3,0(s2)
   123ac:	02098363          	beqz	s3,123d2 <cleanup_glue+0x44>
   123b0:	0009ba03          	ld	s4,0(s3)
   123b4:	000a0b63          	beqz	s4,123ca <cleanup_glue+0x3c>
   123b8:	000a3583          	ld	a1,0(s4)
   123bc:	c199                	beqz	a1,123c2 <cleanup_glue+0x34>
   123be:	fd1ff0ef          	jal	1238e <cleanup_glue>
   123c2:	85d2                	mv	a1,s4
   123c4:	8526                	mv	a0,s1
   123c6:	b6dff0ef          	jal	11f32 <_free_r>
   123ca:	85ce                	mv	a1,s3
   123cc:	8526                	mv	a0,s1
   123ce:	b65ff0ef          	jal	11f32 <_free_r>
   123d2:	85ca                	mv	a1,s2
   123d4:	8526                	mv	a0,s1
   123d6:	b5dff0ef          	jal	11f32 <_free_r>
   123da:	85a2                	mv	a1,s0
   123dc:	7402                	ld	s0,32(sp)
   123de:	70a2                	ld	ra,40(sp)
   123e0:	6942                	ld	s2,16(sp)
   123e2:	69a2                	ld	s3,8(sp)
   123e4:	6a02                	ld	s4,0(sp)
   123e6:	8526                	mv	a0,s1
   123e8:	64e2                	ld	s1,24(sp)
   123ea:	6145                	add	sp,sp,48
   123ec:	b699                	j	11f32 <_free_r>

00000000000123ee <_reclaim_reent>:
   123ee:	7601b783          	ld	a5,1888(gp) # 146b8 <_impure_ptr>
   123f2:	0aa78563          	beq	a5,a0,1249c <_reclaim_reent+0xae>
   123f6:	7d2c                	ld	a1,120(a0)
   123f8:	7179                	add	sp,sp,-48
   123fa:	ec26                	sd	s1,24(sp)
   123fc:	f406                	sd	ra,40(sp)
   123fe:	f022                	sd	s0,32(sp)
   12400:	e84a                	sd	s2,16(sp)
   12402:	e44e                	sd	s3,8(sp)
   12404:	84aa                	mv	s1,a0
   12406:	c58d                	beqz	a1,12430 <_reclaim_reent+0x42>
   12408:	4901                	li	s2,0
   1240a:	20000993          	li	s3,512
   1240e:	012587b3          	add	a5,a1,s2
   12412:	6380                	ld	s0,0(a5)
   12414:	c801                	beqz	s0,12424 <_reclaim_reent+0x36>
   12416:	85a2                	mv	a1,s0
   12418:	6000                	ld	s0,0(s0)
   1241a:	8526                	mv	a0,s1
   1241c:	b17ff0ef          	jal	11f32 <_free_r>
   12420:	f87d                	bnez	s0,12416 <_reclaim_reent+0x28>
   12422:	7cac                	ld	a1,120(s1)
   12424:	0921                	add	s2,s2,8
   12426:	ff3914e3          	bne	s2,s3,1240e <_reclaim_reent+0x20>
   1242a:	8526                	mv	a0,s1
   1242c:	b07ff0ef          	jal	11f32 <_free_r>
   12430:	70ac                	ld	a1,96(s1)
   12432:	c581                	beqz	a1,1243a <_reclaim_reent+0x4c>
   12434:	8526                	mv	a0,s1
   12436:	afdff0ef          	jal	11f32 <_free_r>
   1243a:	1f84b403          	ld	s0,504(s1)
   1243e:	cc01                	beqz	s0,12456 <_reclaim_reent+0x68>
   12440:	20048913          	add	s2,s1,512
   12444:	01240963          	beq	s0,s2,12456 <_reclaim_reent+0x68>
   12448:	85a2                	mv	a1,s0
   1244a:	6000                	ld	s0,0(s0)
   1244c:	8526                	mv	a0,s1
   1244e:	ae5ff0ef          	jal	11f32 <_free_r>
   12452:	fe891be3          	bne	s2,s0,12448 <_reclaim_reent+0x5a>
   12456:	64cc                	ld	a1,136(s1)
   12458:	c581                	beqz	a1,12460 <_reclaim_reent+0x72>
   1245a:	8526                	mv	a0,s1
   1245c:	ad7ff0ef          	jal	11f32 <_free_r>
   12460:	48bc                	lw	a5,80(s1)
   12462:	c795                	beqz	a5,1248e <_reclaim_reent+0xa0>
   12464:	6cbc                	ld	a5,88(s1)
   12466:	8526                	mv	a0,s1
   12468:	9782                	jalr	a5
   1246a:	5204b403          	ld	s0,1312(s1)
   1246e:	c005                	beqz	s0,1248e <_reclaim_reent+0xa0>
   12470:	600c                	ld	a1,0(s0)
   12472:	c581                	beqz	a1,1247a <_reclaim_reent+0x8c>
   12474:	8526                	mv	a0,s1
   12476:	f19ff0ef          	jal	1238e <cleanup_glue>
   1247a:	85a2                	mv	a1,s0
   1247c:	7402                	ld	s0,32(sp)
   1247e:	70a2                	ld	ra,40(sp)
   12480:	6942                	ld	s2,16(sp)
   12482:	69a2                	ld	s3,8(sp)
   12484:	8526                	mv	a0,s1
   12486:	64e2                	ld	s1,24(sp)
   12488:	6145                	add	sp,sp,48
   1248a:	aa9ff06f          	j	11f32 <_free_r>
   1248e:	70a2                	ld	ra,40(sp)
   12490:	7402                	ld	s0,32(sp)
   12492:	64e2                	ld	s1,24(sp)
   12494:	6942                	ld	s2,16(sp)
   12496:	69a2                	ld	s3,8(sp)
   12498:	6145                	add	sp,sp,48
   1249a:	8082                	ret
   1249c:	8082                	ret

000000000001249e <_fstat_r>:
   1249e:	1101                	add	sp,sp,-32
   124a0:	872e                	mv	a4,a1
   124a2:	e822                	sd	s0,16(sp)
   124a4:	e426                	sd	s1,8(sp)
   124a6:	842a                	mv	s0,a0
   124a8:	85b2                	mv	a1,a2
   124aa:	853a                	mv	a0,a4
   124ac:	ec06                	sd	ra,24(sp)
   124ae:	7801a823          	sw	zero,1936(gp) # 146e8 <errno>
   124b2:	0aa000ef          	jal	1255c <_fstat>
   124b6:	57fd                	li	a5,-1
   124b8:	00f50763          	beq	a0,a5,124c6 <_fstat_r+0x28>
   124bc:	60e2                	ld	ra,24(sp)
   124be:	6442                	ld	s0,16(sp)
   124c0:	64a2                	ld	s1,8(sp)
   124c2:	6105                	add	sp,sp,32
   124c4:	8082                	ret
   124c6:	7901a783          	lw	a5,1936(gp) # 146e8 <errno>
   124ca:	dbed                	beqz	a5,124bc <_fstat_r+0x1e>
   124cc:	60e2                	ld	ra,24(sp)
   124ce:	c01c                	sw	a5,0(s0)
   124d0:	6442                	ld	s0,16(sp)
   124d2:	64a2                	ld	s1,8(sp)
   124d4:	6105                	add	sp,sp,32
   124d6:	8082                	ret

00000000000124d8 <_isatty_r>:
   124d8:	1101                	add	sp,sp,-32
   124da:	e822                	sd	s0,16(sp)
   124dc:	e426                	sd	s1,8(sp)
   124de:	842a                	mv	s0,a0
   124e0:	852e                	mv	a0,a1
   124e2:	ec06                	sd	ra,24(sp)
   124e4:	7801a823          	sw	zero,1936(gp) # 146e8 <errno>
   124e8:	0b4000ef          	jal	1259c <_isatty>
   124ec:	57fd                	li	a5,-1
   124ee:	00f50763          	beq	a0,a5,124fc <_isatty_r+0x24>
   124f2:	60e2                	ld	ra,24(sp)
   124f4:	6442                	ld	s0,16(sp)
   124f6:	64a2                	ld	s1,8(sp)
   124f8:	6105                	add	sp,sp,32
   124fa:	8082                	ret
   124fc:	7901a783          	lw	a5,1936(gp) # 146e8 <errno>
   12500:	dbed                	beqz	a5,124f2 <_isatty_r+0x1a>
   12502:	60e2                	ld	ra,24(sp)
   12504:	c01c                	sw	a5,0(s0)
   12506:	6442                	ld	s0,16(sp)
   12508:	64a2                	ld	s1,8(sp)
   1250a:	6105                	add	sp,sp,32
   1250c:	8082                	ret

000000000001250e <_close>:
   1250e:	1141                	add	sp,sp,-16
   12510:	e406                	sd	ra,8(sp)
   12512:	e022                	sd	s0,0(sp)
   12514:	03900893          	li	a7,57
   12518:	00000073          	ecall
   1251c:	842a                	mv	s0,a0
   1251e:	00054763          	bltz	a0,1252c <_close+0x1e>
   12522:	2501                	sext.w	a0,a0
   12524:	60a2                	ld	ra,8(sp)
   12526:	6402                	ld	s0,0(sp)
   12528:	0141                	add	sp,sp,16
   1252a:	8082                	ret
   1252c:	1bc000ef          	jal	126e8 <__errno>
   12530:	4080043b          	negw	s0,s0
   12534:	c100                	sw	s0,0(a0)
   12536:	557d                	li	a0,-1
   12538:	b7f5                	j	12524 <_close+0x16>

000000000001253a <_exit>:
   1253a:	05d00893          	li	a7,93
   1253e:	00000073          	ecall
   12542:	00054363          	bltz	a0,12548 <_exit+0xe>
   12546:	a001                	j	12546 <_exit+0xc>
   12548:	1141                	add	sp,sp,-16
   1254a:	e022                	sd	s0,0(sp)
   1254c:	842a                	mv	s0,a0
   1254e:	e406                	sd	ra,8(sp)
   12550:	4080043b          	negw	s0,s0
   12554:	194000ef          	jal	126e8 <__errno>
   12558:	c100                	sw	s0,0(a0)
   1255a:	a001                	j	1255a <_exit+0x20>

000000000001255c <_fstat>:
   1255c:	7135                	add	sp,sp,-160
   1255e:	e526                	sd	s1,136(sp)
   12560:	ed06                	sd	ra,152(sp)
   12562:	84ae                	mv	s1,a1
   12564:	e922                	sd	s0,144(sp)
   12566:	05000893          	li	a7,80
   1256a:	858a                	mv	a1,sp
   1256c:	00000073          	ecall
   12570:	842a                	mv	s0,a0
   12572:	00054e63          	bltz	a0,1258e <_fstat+0x32>
   12576:	0005041b          	sext.w	s0,a0
   1257a:	8526                	mv	a0,s1
   1257c:	858a                	mv	a1,sp
   1257e:	11c000ef          	jal	1269a <_conv_stat>
   12582:	60ea                	ld	ra,152(sp)
   12584:	8522                	mv	a0,s0
   12586:	644a                	ld	s0,144(sp)
   12588:	64aa                	ld	s1,136(sp)
   1258a:	610d                	add	sp,sp,160
   1258c:	8082                	ret
   1258e:	4080043b          	negw	s0,s0
   12592:	156000ef          	jal	126e8 <__errno>
   12596:	c100                	sw	s0,0(a0)
   12598:	547d                	li	s0,-1
   1259a:	b7c5                	j	1257a <_fstat+0x1e>

000000000001259c <_isatty>:
   1259c:	7119                	add	sp,sp,-128
   1259e:	002c                	add	a1,sp,8
   125a0:	fc86                	sd	ra,120(sp)
   125a2:	fbbff0ef          	jal	1255c <_fstat>
   125a6:	57fd                	li	a5,-1
   125a8:	00f50963          	beq	a0,a5,125ba <_isatty+0x1e>
   125ac:	4532                	lw	a0,12(sp)
   125ae:	70e6                	ld	ra,120(sp)
   125b0:	40d5551b          	sraw	a0,a0,0xd
   125b4:	8905                	and	a0,a0,1
   125b6:	6109                	add	sp,sp,128
   125b8:	8082                	ret
   125ba:	70e6                	ld	ra,120(sp)
   125bc:	4501                	li	a0,0
   125be:	6109                	add	sp,sp,128
   125c0:	8082                	ret

00000000000125c2 <_lseek>:
   125c2:	1141                	add	sp,sp,-16
   125c4:	e406                	sd	ra,8(sp)
   125c6:	e022                	sd	s0,0(sp)
   125c8:	03e00893          	li	a7,62
   125cc:	00000073          	ecall
   125d0:	842a                	mv	s0,a0
   125d2:	00054763          	bltz	a0,125e0 <_lseek+0x1e>
   125d6:	60a2                	ld	ra,8(sp)
   125d8:	8522                	mv	a0,s0
   125da:	6402                	ld	s0,0(sp)
   125dc:	0141                	add	sp,sp,16
   125de:	8082                	ret
   125e0:	4080043b          	negw	s0,s0
   125e4:	104000ef          	jal	126e8 <__errno>
   125e8:	c100                	sw	s0,0(a0)
   125ea:	547d                	li	s0,-1
   125ec:	b7ed                	j	125d6 <_lseek+0x14>

00000000000125ee <_read>:
   125ee:	1141                	add	sp,sp,-16
   125f0:	e406                	sd	ra,8(sp)
   125f2:	e022                	sd	s0,0(sp)
   125f4:	03f00893          	li	a7,63
   125f8:	00000073          	ecall
   125fc:	842a                	mv	s0,a0
   125fe:	00054763          	bltz	a0,1260c <_read+0x1e>
   12602:	60a2                	ld	ra,8(sp)
   12604:	8522                	mv	a0,s0
   12606:	6402                	ld	s0,0(sp)
   12608:	0141                	add	sp,sp,16
   1260a:	8082                	ret
   1260c:	4080043b          	negw	s0,s0
   12610:	0d8000ef          	jal	126e8 <__errno>
   12614:	c100                	sw	s0,0(a0)
   12616:	547d                	li	s0,-1
   12618:	b7ed                	j	12602 <_read+0x14>

000000000001261a <_sbrk>:
   1261a:	7981b703          	ld	a4,1944(gp) # 146f0 <heap_end.0>
   1261e:	1141                	add	sp,sp,-16
   12620:	e406                	sd	ra,8(sp)
   12622:	87aa                	mv	a5,a0
   12624:	ef01                	bnez	a4,1263c <_sbrk+0x22>
   12626:	0d600893          	li	a7,214
   1262a:	4501                	li	a0,0
   1262c:	00000073          	ecall
   12630:	567d                	li	a2,-1
   12632:	872a                	mv	a4,a0
   12634:	02c50563          	beq	a0,a2,1265e <_sbrk+0x44>
   12638:	78a1bc23          	sd	a0,1944(gp) # 146f0 <heap_end.0>
   1263c:	0d600893          	li	a7,214
   12640:	00e78533          	add	a0,a5,a4
   12644:	00000073          	ecall
   12648:	7981b703          	ld	a4,1944(gp) # 146f0 <heap_end.0>
   1264c:	97ba                	add	a5,a5,a4
   1264e:	00f51863          	bne	a0,a5,1265e <_sbrk+0x44>
   12652:	60a2                	ld	ra,8(sp)
   12654:	78a1bc23          	sd	a0,1944(gp) # 146f0 <heap_end.0>
   12658:	853a                	mv	a0,a4
   1265a:	0141                	add	sp,sp,16
   1265c:	8082                	ret
   1265e:	08a000ef          	jal	126e8 <__errno>
   12662:	60a2                	ld	ra,8(sp)
   12664:	47b1                	li	a5,12
   12666:	c11c                	sw	a5,0(a0)
   12668:	557d                	li	a0,-1
   1266a:	0141                	add	sp,sp,16
   1266c:	8082                	ret

000000000001266e <_write>:
   1266e:	1141                	add	sp,sp,-16
   12670:	e406                	sd	ra,8(sp)
   12672:	e022                	sd	s0,0(sp)
   12674:	04000893          	li	a7,64
   12678:	00000073          	ecall
   1267c:	842a                	mv	s0,a0
   1267e:	00054763          	bltz	a0,1268c <_write+0x1e>
   12682:	60a2                	ld	ra,8(sp)
   12684:	8522                	mv	a0,s0
   12686:	6402                	ld	s0,0(sp)
   12688:	0141                	add	sp,sp,16
   1268a:	8082                	ret
   1268c:	4080043b          	negw	s0,s0
   12690:	058000ef          	jal	126e8 <__errno>
   12694:	c100                	sw	s0,0(a0)
   12696:	547d                	li	s0,-1
   12698:	b7ed                	j	12682 <_write+0x14>

000000000001269a <_conv_stat>:
   1269a:	0185d703          	lhu	a4,24(a1)
   1269e:	0145d783          	lhu	a5,20(a1)
   126a2:	4dd0                	lw	a2,28(a1)
   126a4:	7194                	ld	a3,32(a1)
   126a6:	0005b303          	ld	t1,0(a1)
   126aa:	0085b883          	ld	a7,8(a1)
   126ae:	0105a803          	lw	a6,16(a1)
   126b2:	0107171b          	sllw	a4,a4,0x10
   126b6:	8fd9                	or	a5,a5,a4
   126b8:	00c51623          	sh	a2,12(a0)
   126bc:	00d51723          	sh	a3,14(a0)
   126c0:	00651023          	sh	t1,0(a0)
   126c4:	01151123          	sh	a7,2(a0)
   126c8:	01052223          	sw	a6,4(a0)
   126cc:	c51c                	sw	a5,8(a0)
   126ce:	7998                	ld	a4,48(a1)
   126d0:	65bc                	ld	a5,72(a1)
   126d2:	61b0                	ld	a2,64(a1)
   126d4:	5d94                	lw	a3,56(a1)
   126d6:	e918                	sd	a4,16(a0)
   126d8:	ed1c                	sd	a5,24(a0)
   126da:	6db8                	ld	a4,88(a1)
   126dc:	75bc                	ld	a5,104(a1)
   126de:	e930                	sd	a2,80(a0)
   126e0:	e534                	sd	a3,72(a0)
   126e2:	f518                	sd	a4,40(a0)
   126e4:	fd1c                	sd	a5,56(a0)
   126e6:	8082                	ret

00000000000126e8 <__errno>:
   126e8:	7601b503          	ld	a0,1888(gp) # 146b8 <_impure_ptr>
   126ec:	8082                	ret

Disassembly of section .rodata:

00000000000126f0 <.rodata>:
   126f0:	6568                	ld	a0,200(a0)
   126f2:	6c6c                	ld	a1,216(s0)
   126f4:	0000006f          	j	126f4 <__errno+0xc>
   126f8:	6c726f77          	.4byte	0x6c726f77
   126fc:	0064                	add	s1,sp,12
   126fe:	0000                	unimp
   12700:	7566                	ld	a0,120(sp)
   12702:	79206b63          	bltu	zero,s2,12e98 <__errno+0x7b0>
   12706:	0000756f          	jal	a0,19706 <__BSS_END__+0x4fae>
   1270a:	0000                	unimp
   1270c:	0000                	unimp
   1270e:	0000                	unimp
   12710:	6972                	ld	s2,280(sp)
   12712:	00766373          	csrrs	t1,0x7,12
   12716:	0000                	unimp
   12718:	000a                	c.slli	zero,0x2

Disassembly of section .eh_frame:

000000000001371c <__EH_FRAME_BEGIN__>:
   1371c:	0000                	unimp
	...

Disassembly of section .init_array:

0000000000013720 <__init_array_start>:
   13720:	0106                	sll	sp,sp,0x1
   13722:	0001                	nop
   13724:	0000                	unimp
	...

0000000000013728 <__frame_dummy_init_array_entry>:
   13728:	0186                	sll	gp,gp,0x1
   1372a:	0001                	nop
   1372c:	0000                	unimp
	...

Disassembly of section .fini_array:

0000000000013730 <__do_global_dtors_aux_fini_array_entry>:
   13730:	0158                	add	a4,sp,132
   13732:	0001                	nop
   13734:	0000                	unimp
	...

Disassembly of section .data:

0000000000013738 <impure_data>:
	...
   13740:	3c70                	fld	fa2,248(s0)
   13742:	0001                	nop
   13744:	0000                	unimp
   13746:	0000                	unimp
   13748:	3d20                	fld	fs0,120(a0)
   1374a:	0001                	nop
   1374c:	0000                	unimp
   1374e:	0000                	unimp
   13750:	3dd0                	fld	fa2,184(a1)
   13752:	0001                	nop
	...
   13820:	0001                	nop
   13822:	0000                	unimp
   13824:	0000                	unimp
   13826:	0000                	unimp
   13828:	330e                	fld	ft6,224(sp)
   1382a:	abcd                	j	13e1c <impure_data+0x6e4>
   1382c:	1234                	add	a3,sp,296
   1382e:	e66d                	bnez	a2,13918 <impure_data+0x1e0>
   13830:	deec                	sw	a1,124(a3)
   13832:	0005                	c.nop	1
   13834:	0000000b          	.4byte	0xb
	...

0000000000013e80 <__malloc_av_>:
	...
   13e90:	3e80                	fld	fs0,56(a3)
   13e92:	0001                	nop
   13e94:	0000                	unimp
   13e96:	0000                	unimp
   13e98:	3e80                	fld	fs0,56(a3)
   13e9a:	0001                	nop
   13e9c:	0000                	unimp
   13e9e:	0000                	unimp
   13ea0:	3e90                	fld	fa2,56(a3)
   13ea2:	0001                	nop
   13ea4:	0000                	unimp
   13ea6:	0000                	unimp
   13ea8:	3e90                	fld	fa2,56(a3)
   13eaa:	0001                	nop
   13eac:	0000                	unimp
   13eae:	0000                	unimp
   13eb0:	3ea0                	fld	fs0,120(a3)
   13eb2:	0001                	nop
   13eb4:	0000                	unimp
   13eb6:	0000                	unimp
   13eb8:	3ea0                	fld	fs0,120(a3)
   13eba:	0001                	nop
   13ebc:	0000                	unimp
   13ebe:	0000                	unimp
   13ec0:	3eb0                	fld	fa2,120(a3)
   13ec2:	0001                	nop
   13ec4:	0000                	unimp
   13ec6:	0000                	unimp
   13ec8:	3eb0                	fld	fa2,120(a3)
   13eca:	0001                	nop
   13ecc:	0000                	unimp
   13ece:	0000                	unimp
   13ed0:	3ec0                	fld	fs0,184(a3)
   13ed2:	0001                	nop
   13ed4:	0000                	unimp
   13ed6:	0000                	unimp
   13ed8:	3ec0                	fld	fs0,184(a3)
   13eda:	0001                	nop
   13edc:	0000                	unimp
   13ede:	0000                	unimp
   13ee0:	3ed0                	fld	fa2,184(a3)
   13ee2:	0001                	nop
   13ee4:	0000                	unimp
   13ee6:	0000                	unimp
   13ee8:	3ed0                	fld	fa2,184(a3)
   13eea:	0001                	nop
   13eec:	0000                	unimp
   13eee:	0000                	unimp
   13ef0:	3ee0                	fld	fs0,248(a3)
   13ef2:	0001                	nop
   13ef4:	0000                	unimp
   13ef6:	0000                	unimp
   13ef8:	3ee0                	fld	fs0,248(a3)
   13efa:	0001                	nop
   13efc:	0000                	unimp
   13efe:	0000                	unimp
   13f00:	3ef0                	fld	fa2,248(a3)
   13f02:	0001                	nop
   13f04:	0000                	unimp
   13f06:	0000                	unimp
   13f08:	3ef0                	fld	fa2,248(a3)
   13f0a:	0001                	nop
   13f0c:	0000                	unimp
   13f0e:	0000                	unimp
   13f10:	3f00                	fld	fs0,56(a4)
   13f12:	0001                	nop
   13f14:	0000                	unimp
   13f16:	0000                	unimp
   13f18:	3f00                	fld	fs0,56(a4)
   13f1a:	0001                	nop
   13f1c:	0000                	unimp
   13f1e:	0000                	unimp
   13f20:	3f10                	fld	fa2,56(a4)
   13f22:	0001                	nop
   13f24:	0000                	unimp
   13f26:	0000                	unimp
   13f28:	3f10                	fld	fa2,56(a4)
   13f2a:	0001                	nop
   13f2c:	0000                	unimp
   13f2e:	0000                	unimp
   13f30:	3f20                	fld	fs0,120(a4)
   13f32:	0001                	nop
   13f34:	0000                	unimp
   13f36:	0000                	unimp
   13f38:	3f20                	fld	fs0,120(a4)
   13f3a:	0001                	nop
   13f3c:	0000                	unimp
   13f3e:	0000                	unimp
   13f40:	3f30                	fld	fa2,120(a4)
   13f42:	0001                	nop
   13f44:	0000                	unimp
   13f46:	0000                	unimp
   13f48:	3f30                	fld	fa2,120(a4)
   13f4a:	0001                	nop
   13f4c:	0000                	unimp
   13f4e:	0000                	unimp
   13f50:	3f40                	fld	fs0,184(a4)
   13f52:	0001                	nop
   13f54:	0000                	unimp
   13f56:	0000                	unimp
   13f58:	3f40                	fld	fs0,184(a4)
   13f5a:	0001                	nop
   13f5c:	0000                	unimp
   13f5e:	0000                	unimp
   13f60:	3f50                	fld	fa2,184(a4)
   13f62:	0001                	nop
   13f64:	0000                	unimp
   13f66:	0000                	unimp
   13f68:	3f50                	fld	fa2,184(a4)
   13f6a:	0001                	nop
   13f6c:	0000                	unimp
   13f6e:	0000                	unimp
   13f70:	3f60                	fld	fs0,248(a4)
   13f72:	0001                	nop
   13f74:	0000                	unimp
   13f76:	0000                	unimp
   13f78:	3f60                	fld	fs0,248(a4)
   13f7a:	0001                	nop
   13f7c:	0000                	unimp
   13f7e:	0000                	unimp
   13f80:	3f70                	fld	fa2,248(a4)
   13f82:	0001                	nop
   13f84:	0000                	unimp
   13f86:	0000                	unimp
   13f88:	3f70                	fld	fa2,248(a4)
   13f8a:	0001                	nop
   13f8c:	0000                	unimp
   13f8e:	0000                	unimp
   13f90:	3f80                	fld	fs0,56(a5)
   13f92:	0001                	nop
   13f94:	0000                	unimp
   13f96:	0000                	unimp
   13f98:	3f80                	fld	fs0,56(a5)
   13f9a:	0001                	nop
   13f9c:	0000                	unimp
   13f9e:	0000                	unimp
   13fa0:	3f90                	fld	fa2,56(a5)
   13fa2:	0001                	nop
   13fa4:	0000                	unimp
   13fa6:	0000                	unimp
   13fa8:	3f90                	fld	fa2,56(a5)
   13faa:	0001                	nop
   13fac:	0000                	unimp
   13fae:	0000                	unimp
   13fb0:	3fa0                	fld	fs0,120(a5)
   13fb2:	0001                	nop
   13fb4:	0000                	unimp
   13fb6:	0000                	unimp
   13fb8:	3fa0                	fld	fs0,120(a5)
   13fba:	0001                	nop
   13fbc:	0000                	unimp
   13fbe:	0000                	unimp
   13fc0:	3fb0                	fld	fa2,120(a5)
   13fc2:	0001                	nop
   13fc4:	0000                	unimp
   13fc6:	0000                	unimp
   13fc8:	3fb0                	fld	fa2,120(a5)
   13fca:	0001                	nop
   13fcc:	0000                	unimp
   13fce:	0000                	unimp
   13fd0:	3fc0                	fld	fs0,184(a5)
   13fd2:	0001                	nop
   13fd4:	0000                	unimp
   13fd6:	0000                	unimp
   13fd8:	3fc0                	fld	fs0,184(a5)
   13fda:	0001                	nop
   13fdc:	0000                	unimp
   13fde:	0000                	unimp
   13fe0:	3fd0                	fld	fa2,184(a5)
   13fe2:	0001                	nop
   13fe4:	0000                	unimp
   13fe6:	0000                	unimp
   13fe8:	3fd0                	fld	fa2,184(a5)
   13fea:	0001                	nop
   13fec:	0000                	unimp
   13fee:	0000                	unimp
   13ff0:	3fe0                	fld	fs0,248(a5)
   13ff2:	0001                	nop
   13ff4:	0000                	unimp
   13ff6:	0000                	unimp
   13ff8:	3fe0                	fld	fs0,248(a5)
   13ffa:	0001                	nop
   13ffc:	0000                	unimp
   13ffe:	0000                	unimp
   14000:	3ff0                	fld	fa2,248(a5)
   14002:	0001                	nop
   14004:	0000                	unimp
   14006:	0000                	unimp
   14008:	3ff0                	fld	fa2,248(a5)
   1400a:	0001                	nop
   1400c:	0000                	unimp
   1400e:	0000                	unimp
   14010:	4000                	lw	s0,0(s0)
   14012:	0001                	nop
   14014:	0000                	unimp
   14016:	0000                	unimp
   14018:	4000                	lw	s0,0(s0)
   1401a:	0001                	nop
   1401c:	0000                	unimp
   1401e:	0000                	unimp
   14020:	4010                	lw	a2,0(s0)
   14022:	0001                	nop
   14024:	0000                	unimp
   14026:	0000                	unimp
   14028:	4010                	lw	a2,0(s0)
   1402a:	0001                	nop
   1402c:	0000                	unimp
   1402e:	0000                	unimp
   14030:	4020                	lw	s0,64(s0)
   14032:	0001                	nop
   14034:	0000                	unimp
   14036:	0000                	unimp
   14038:	4020                	lw	s0,64(s0)
   1403a:	0001                	nop
   1403c:	0000                	unimp
   1403e:	0000                	unimp
   14040:	4030                	lw	a2,64(s0)
   14042:	0001                	nop
   14044:	0000                	unimp
   14046:	0000                	unimp
   14048:	4030                	lw	a2,64(s0)
   1404a:	0001                	nop
   1404c:	0000                	unimp
   1404e:	0000                	unimp
   14050:	4040                	lw	s0,4(s0)
   14052:	0001                	nop
   14054:	0000                	unimp
   14056:	0000                	unimp
   14058:	4040                	lw	s0,4(s0)
   1405a:	0001                	nop
   1405c:	0000                	unimp
   1405e:	0000                	unimp
   14060:	4050                	lw	a2,4(s0)
   14062:	0001                	nop
   14064:	0000                	unimp
   14066:	0000                	unimp
   14068:	4050                	lw	a2,4(s0)
   1406a:	0001                	nop
   1406c:	0000                	unimp
   1406e:	0000                	unimp
   14070:	4060                	lw	s0,68(s0)
   14072:	0001                	nop
   14074:	0000                	unimp
   14076:	0000                	unimp
   14078:	4060                	lw	s0,68(s0)
   1407a:	0001                	nop
   1407c:	0000                	unimp
   1407e:	0000                	unimp
   14080:	4070                	lw	a2,68(s0)
   14082:	0001                	nop
   14084:	0000                	unimp
   14086:	0000                	unimp
   14088:	4070                	lw	a2,68(s0)
   1408a:	0001                	nop
   1408c:	0000                	unimp
   1408e:	0000                	unimp
   14090:	4080                	lw	s0,0(s1)
   14092:	0001                	nop
   14094:	0000                	unimp
   14096:	0000                	unimp
   14098:	4080                	lw	s0,0(s1)
   1409a:	0001                	nop
   1409c:	0000                	unimp
   1409e:	0000                	unimp
   140a0:	4090                	lw	a2,0(s1)
   140a2:	0001                	nop
   140a4:	0000                	unimp
   140a6:	0000                	unimp
   140a8:	4090                	lw	a2,0(s1)
   140aa:	0001                	nop
   140ac:	0000                	unimp
   140ae:	0000                	unimp
   140b0:	40a0                	lw	s0,64(s1)
   140b2:	0001                	nop
   140b4:	0000                	unimp
   140b6:	0000                	unimp
   140b8:	40a0                	lw	s0,64(s1)
   140ba:	0001                	nop
   140bc:	0000                	unimp
   140be:	0000                	unimp
   140c0:	40b0                	lw	a2,64(s1)
   140c2:	0001                	nop
   140c4:	0000                	unimp
   140c6:	0000                	unimp
   140c8:	40b0                	lw	a2,64(s1)
   140ca:	0001                	nop
   140cc:	0000                	unimp
   140ce:	0000                	unimp
   140d0:	40c0                	lw	s0,4(s1)
   140d2:	0001                	nop
   140d4:	0000                	unimp
   140d6:	0000                	unimp
   140d8:	40c0                	lw	s0,4(s1)
   140da:	0001                	nop
   140dc:	0000                	unimp
   140de:	0000                	unimp
   140e0:	40d0                	lw	a2,4(s1)
   140e2:	0001                	nop
   140e4:	0000                	unimp
   140e6:	0000                	unimp
   140e8:	40d0                	lw	a2,4(s1)
   140ea:	0001                	nop
   140ec:	0000                	unimp
   140ee:	0000                	unimp
   140f0:	40e0                	lw	s0,68(s1)
   140f2:	0001                	nop
   140f4:	0000                	unimp
   140f6:	0000                	unimp
   140f8:	40e0                	lw	s0,68(s1)
   140fa:	0001                	nop
   140fc:	0000                	unimp
   140fe:	0000                	unimp
   14100:	40f0                	lw	a2,68(s1)
   14102:	0001                	nop
   14104:	0000                	unimp
   14106:	0000                	unimp
   14108:	40f0                	lw	a2,68(s1)
   1410a:	0001                	nop
   1410c:	0000                	unimp
   1410e:	0000                	unimp
   14110:	4100                	lw	s0,0(a0)
   14112:	0001                	nop
   14114:	0000                	unimp
   14116:	0000                	unimp
   14118:	4100                	lw	s0,0(a0)
   1411a:	0001                	nop
   1411c:	0000                	unimp
   1411e:	0000                	unimp
   14120:	4110                	lw	a2,0(a0)
   14122:	0001                	nop
   14124:	0000                	unimp
   14126:	0000                	unimp
   14128:	4110                	lw	a2,0(a0)
   1412a:	0001                	nop
   1412c:	0000                	unimp
   1412e:	0000                	unimp
   14130:	4120                	lw	s0,64(a0)
   14132:	0001                	nop
   14134:	0000                	unimp
   14136:	0000                	unimp
   14138:	4120                	lw	s0,64(a0)
   1413a:	0001                	nop
   1413c:	0000                	unimp
   1413e:	0000                	unimp
   14140:	4130                	lw	a2,64(a0)
   14142:	0001                	nop
   14144:	0000                	unimp
   14146:	0000                	unimp
   14148:	4130                	lw	a2,64(a0)
   1414a:	0001                	nop
   1414c:	0000                	unimp
   1414e:	0000                	unimp
   14150:	4140                	lw	s0,4(a0)
   14152:	0001                	nop
   14154:	0000                	unimp
   14156:	0000                	unimp
   14158:	4140                	lw	s0,4(a0)
   1415a:	0001                	nop
   1415c:	0000                	unimp
   1415e:	0000                	unimp
   14160:	4150                	lw	a2,4(a0)
   14162:	0001                	nop
   14164:	0000                	unimp
   14166:	0000                	unimp
   14168:	4150                	lw	a2,4(a0)
   1416a:	0001                	nop
   1416c:	0000                	unimp
   1416e:	0000                	unimp
   14170:	4160                	lw	s0,68(a0)
   14172:	0001                	nop
   14174:	0000                	unimp
   14176:	0000                	unimp
   14178:	4160                	lw	s0,68(a0)
   1417a:	0001                	nop
   1417c:	0000                	unimp
   1417e:	0000                	unimp
   14180:	4170                	lw	a2,68(a0)
   14182:	0001                	nop
   14184:	0000                	unimp
   14186:	0000                	unimp
   14188:	4170                	lw	a2,68(a0)
   1418a:	0001                	nop
   1418c:	0000                	unimp
   1418e:	0000                	unimp
   14190:	4180                	lw	s0,0(a1)
   14192:	0001                	nop
   14194:	0000                	unimp
   14196:	0000                	unimp
   14198:	4180                	lw	s0,0(a1)
   1419a:	0001                	nop
   1419c:	0000                	unimp
   1419e:	0000                	unimp
   141a0:	4190                	lw	a2,0(a1)
   141a2:	0001                	nop
   141a4:	0000                	unimp
   141a6:	0000                	unimp
   141a8:	4190                	lw	a2,0(a1)
   141aa:	0001                	nop
   141ac:	0000                	unimp
   141ae:	0000                	unimp
   141b0:	41a0                	lw	s0,64(a1)
   141b2:	0001                	nop
   141b4:	0000                	unimp
   141b6:	0000                	unimp
   141b8:	41a0                	lw	s0,64(a1)
   141ba:	0001                	nop
   141bc:	0000                	unimp
   141be:	0000                	unimp
   141c0:	41b0                	lw	a2,64(a1)
   141c2:	0001                	nop
   141c4:	0000                	unimp
   141c6:	0000                	unimp
   141c8:	41b0                	lw	a2,64(a1)
   141ca:	0001                	nop
   141cc:	0000                	unimp
   141ce:	0000                	unimp
   141d0:	41c0                	lw	s0,4(a1)
   141d2:	0001                	nop
   141d4:	0000                	unimp
   141d6:	0000                	unimp
   141d8:	41c0                	lw	s0,4(a1)
   141da:	0001                	nop
   141dc:	0000                	unimp
   141de:	0000                	unimp
   141e0:	41d0                	lw	a2,4(a1)
   141e2:	0001                	nop
   141e4:	0000                	unimp
   141e6:	0000                	unimp
   141e8:	41d0                	lw	a2,4(a1)
   141ea:	0001                	nop
   141ec:	0000                	unimp
   141ee:	0000                	unimp
   141f0:	41e0                	lw	s0,68(a1)
   141f2:	0001                	nop
   141f4:	0000                	unimp
   141f6:	0000                	unimp
   141f8:	41e0                	lw	s0,68(a1)
   141fa:	0001                	nop
   141fc:	0000                	unimp
   141fe:	0000                	unimp
   14200:	41f0                	lw	a2,68(a1)
   14202:	0001                	nop
   14204:	0000                	unimp
   14206:	0000                	unimp
   14208:	41f0                	lw	a2,68(a1)
   1420a:	0001                	nop
   1420c:	0000                	unimp
   1420e:	0000                	unimp
   14210:	4200                	lw	s0,0(a2)
   14212:	0001                	nop
   14214:	0000                	unimp
   14216:	0000                	unimp
   14218:	4200                	lw	s0,0(a2)
   1421a:	0001                	nop
   1421c:	0000                	unimp
   1421e:	0000                	unimp
   14220:	4210                	lw	a2,0(a2)
   14222:	0001                	nop
   14224:	0000                	unimp
   14226:	0000                	unimp
   14228:	4210                	lw	a2,0(a2)
   1422a:	0001                	nop
   1422c:	0000                	unimp
   1422e:	0000                	unimp
   14230:	4220                	lw	s0,64(a2)
   14232:	0001                	nop
   14234:	0000                	unimp
   14236:	0000                	unimp
   14238:	4220                	lw	s0,64(a2)
   1423a:	0001                	nop
   1423c:	0000                	unimp
   1423e:	0000                	unimp
   14240:	4230                	lw	a2,64(a2)
   14242:	0001                	nop
   14244:	0000                	unimp
   14246:	0000                	unimp
   14248:	4230                	lw	a2,64(a2)
   1424a:	0001                	nop
   1424c:	0000                	unimp
   1424e:	0000                	unimp
   14250:	4240                	lw	s0,4(a2)
   14252:	0001                	nop
   14254:	0000                	unimp
   14256:	0000                	unimp
   14258:	4240                	lw	s0,4(a2)
   1425a:	0001                	nop
   1425c:	0000                	unimp
   1425e:	0000                	unimp
   14260:	4250                	lw	a2,4(a2)
   14262:	0001                	nop
   14264:	0000                	unimp
   14266:	0000                	unimp
   14268:	4250                	lw	a2,4(a2)
   1426a:	0001                	nop
   1426c:	0000                	unimp
   1426e:	0000                	unimp
   14270:	4260                	lw	s0,68(a2)
   14272:	0001                	nop
   14274:	0000                	unimp
   14276:	0000                	unimp
   14278:	4260                	lw	s0,68(a2)
   1427a:	0001                	nop
   1427c:	0000                	unimp
   1427e:	0000                	unimp
   14280:	4270                	lw	a2,68(a2)
   14282:	0001                	nop
   14284:	0000                	unimp
   14286:	0000                	unimp
   14288:	4270                	lw	a2,68(a2)
   1428a:	0001                	nop
   1428c:	0000                	unimp
   1428e:	0000                	unimp
   14290:	4280                	lw	s0,0(a3)
   14292:	0001                	nop
   14294:	0000                	unimp
   14296:	0000                	unimp
   14298:	4280                	lw	s0,0(a3)
   1429a:	0001                	nop
   1429c:	0000                	unimp
   1429e:	0000                	unimp
   142a0:	4290                	lw	a2,0(a3)
   142a2:	0001                	nop
   142a4:	0000                	unimp
   142a6:	0000                	unimp
   142a8:	4290                	lw	a2,0(a3)
   142aa:	0001                	nop
   142ac:	0000                	unimp
   142ae:	0000                	unimp
   142b0:	42a0                	lw	s0,64(a3)
   142b2:	0001                	nop
   142b4:	0000                	unimp
   142b6:	0000                	unimp
   142b8:	42a0                	lw	s0,64(a3)
   142ba:	0001                	nop
   142bc:	0000                	unimp
   142be:	0000                	unimp
   142c0:	42b0                	lw	a2,64(a3)
   142c2:	0001                	nop
   142c4:	0000                	unimp
   142c6:	0000                	unimp
   142c8:	42b0                	lw	a2,64(a3)
   142ca:	0001                	nop
   142cc:	0000                	unimp
   142ce:	0000                	unimp
   142d0:	42c0                	lw	s0,4(a3)
   142d2:	0001                	nop
   142d4:	0000                	unimp
   142d6:	0000                	unimp
   142d8:	42c0                	lw	s0,4(a3)
   142da:	0001                	nop
   142dc:	0000                	unimp
   142de:	0000                	unimp
   142e0:	42d0                	lw	a2,4(a3)
   142e2:	0001                	nop
   142e4:	0000                	unimp
   142e6:	0000                	unimp
   142e8:	42d0                	lw	a2,4(a3)
   142ea:	0001                	nop
   142ec:	0000                	unimp
   142ee:	0000                	unimp
   142f0:	42e0                	lw	s0,68(a3)
   142f2:	0001                	nop
   142f4:	0000                	unimp
   142f6:	0000                	unimp
   142f8:	42e0                	lw	s0,68(a3)
   142fa:	0001                	nop
   142fc:	0000                	unimp
   142fe:	0000                	unimp
   14300:	42f0                	lw	a2,68(a3)
   14302:	0001                	nop
   14304:	0000                	unimp
   14306:	0000                	unimp
   14308:	42f0                	lw	a2,68(a3)
   1430a:	0001                	nop
   1430c:	0000                	unimp
   1430e:	0000                	unimp
   14310:	4300                	lw	s0,0(a4)
   14312:	0001                	nop
   14314:	0000                	unimp
   14316:	0000                	unimp
   14318:	4300                	lw	s0,0(a4)
   1431a:	0001                	nop
   1431c:	0000                	unimp
   1431e:	0000                	unimp
   14320:	4310                	lw	a2,0(a4)
   14322:	0001                	nop
   14324:	0000                	unimp
   14326:	0000                	unimp
   14328:	4310                	lw	a2,0(a4)
   1432a:	0001                	nop
   1432c:	0000                	unimp
   1432e:	0000                	unimp
   14330:	4320                	lw	s0,64(a4)
   14332:	0001                	nop
   14334:	0000                	unimp
   14336:	0000                	unimp
   14338:	4320                	lw	s0,64(a4)
   1433a:	0001                	nop
   1433c:	0000                	unimp
   1433e:	0000                	unimp
   14340:	4330                	lw	a2,64(a4)
   14342:	0001                	nop
   14344:	0000                	unimp
   14346:	0000                	unimp
   14348:	4330                	lw	a2,64(a4)
   1434a:	0001                	nop
   1434c:	0000                	unimp
   1434e:	0000                	unimp
   14350:	4340                	lw	s0,4(a4)
   14352:	0001                	nop
   14354:	0000                	unimp
   14356:	0000                	unimp
   14358:	4340                	lw	s0,4(a4)
   1435a:	0001                	nop
   1435c:	0000                	unimp
   1435e:	0000                	unimp
   14360:	4350                	lw	a2,4(a4)
   14362:	0001                	nop
   14364:	0000                	unimp
   14366:	0000                	unimp
   14368:	4350                	lw	a2,4(a4)
   1436a:	0001                	nop
   1436c:	0000                	unimp
   1436e:	0000                	unimp
   14370:	4360                	lw	s0,68(a4)
   14372:	0001                	nop
   14374:	0000                	unimp
   14376:	0000                	unimp
   14378:	4360                	lw	s0,68(a4)
   1437a:	0001                	nop
   1437c:	0000                	unimp
   1437e:	0000                	unimp
   14380:	4370                	lw	a2,68(a4)
   14382:	0001                	nop
   14384:	0000                	unimp
   14386:	0000                	unimp
   14388:	4370                	lw	a2,68(a4)
   1438a:	0001                	nop
   1438c:	0000                	unimp
   1438e:	0000                	unimp
   14390:	4380                	lw	s0,0(a5)
   14392:	0001                	nop
   14394:	0000                	unimp
   14396:	0000                	unimp
   14398:	4380                	lw	s0,0(a5)
   1439a:	0001                	nop
   1439c:	0000                	unimp
   1439e:	0000                	unimp
   143a0:	4390                	lw	a2,0(a5)
   143a2:	0001                	nop
   143a4:	0000                	unimp
   143a6:	0000                	unimp
   143a8:	4390                	lw	a2,0(a5)
   143aa:	0001                	nop
   143ac:	0000                	unimp
   143ae:	0000                	unimp
   143b0:	43a0                	lw	s0,64(a5)
   143b2:	0001                	nop
   143b4:	0000                	unimp
   143b6:	0000                	unimp
   143b8:	43a0                	lw	s0,64(a5)
   143ba:	0001                	nop
   143bc:	0000                	unimp
   143be:	0000                	unimp
   143c0:	43b0                	lw	a2,64(a5)
   143c2:	0001                	nop
   143c4:	0000                	unimp
   143c6:	0000                	unimp
   143c8:	43b0                	lw	a2,64(a5)
   143ca:	0001                	nop
   143cc:	0000                	unimp
   143ce:	0000                	unimp
   143d0:	43c0                	lw	s0,4(a5)
   143d2:	0001                	nop
   143d4:	0000                	unimp
   143d6:	0000                	unimp
   143d8:	43c0                	lw	s0,4(a5)
   143da:	0001                	nop
   143dc:	0000                	unimp
   143de:	0000                	unimp
   143e0:	43d0                	lw	a2,4(a5)
   143e2:	0001                	nop
   143e4:	0000                	unimp
   143e6:	0000                	unimp
   143e8:	43d0                	lw	a2,4(a5)
   143ea:	0001                	nop
   143ec:	0000                	unimp
   143ee:	0000                	unimp
   143f0:	43e0                	lw	s0,68(a5)
   143f2:	0001                	nop
   143f4:	0000                	unimp
   143f6:	0000                	unimp
   143f8:	43e0                	lw	s0,68(a5)
   143fa:	0001                	nop
   143fc:	0000                	unimp
   143fe:	0000                	unimp
   14400:	43f0                	lw	a2,68(a5)
   14402:	0001                	nop
   14404:	0000                	unimp
   14406:	0000                	unimp
   14408:	43f0                	lw	a2,68(a5)
   1440a:	0001                	nop
   1440c:	0000                	unimp
   1440e:	0000                	unimp
   14410:	4400                	lw	s0,8(s0)
   14412:	0001                	nop
   14414:	0000                	unimp
   14416:	0000                	unimp
   14418:	4400                	lw	s0,8(s0)
   1441a:	0001                	nop
   1441c:	0000                	unimp
   1441e:	0000                	unimp
   14420:	4410                	lw	a2,8(s0)
   14422:	0001                	nop
   14424:	0000                	unimp
   14426:	0000                	unimp
   14428:	4410                	lw	a2,8(s0)
   1442a:	0001                	nop
   1442c:	0000                	unimp
   1442e:	0000                	unimp
   14430:	4420                	lw	s0,72(s0)
   14432:	0001                	nop
   14434:	0000                	unimp
   14436:	0000                	unimp
   14438:	4420                	lw	s0,72(s0)
   1443a:	0001                	nop
   1443c:	0000                	unimp
   1443e:	0000                	unimp
   14440:	4430                	lw	a2,72(s0)
   14442:	0001                	nop
   14444:	0000                	unimp
   14446:	0000                	unimp
   14448:	4430                	lw	a2,72(s0)
   1444a:	0001                	nop
   1444c:	0000                	unimp
   1444e:	0000                	unimp
   14450:	4440                	lw	s0,12(s0)
   14452:	0001                	nop
   14454:	0000                	unimp
   14456:	0000                	unimp
   14458:	4440                	lw	s0,12(s0)
   1445a:	0001                	nop
   1445c:	0000                	unimp
   1445e:	0000                	unimp
   14460:	4450                	lw	a2,12(s0)
   14462:	0001                	nop
   14464:	0000                	unimp
   14466:	0000                	unimp
   14468:	4450                	lw	a2,12(s0)
   1446a:	0001                	nop
   1446c:	0000                	unimp
   1446e:	0000                	unimp
   14470:	4460                	lw	s0,76(s0)
   14472:	0001                	nop
   14474:	0000                	unimp
   14476:	0000                	unimp
   14478:	4460                	lw	s0,76(s0)
   1447a:	0001                	nop
   1447c:	0000                	unimp
   1447e:	0000                	unimp
   14480:	4470                	lw	a2,76(s0)
   14482:	0001                	nop
   14484:	0000                	unimp
   14486:	0000                	unimp
   14488:	4470                	lw	a2,76(s0)
   1448a:	0001                	nop
   1448c:	0000                	unimp
   1448e:	0000                	unimp
   14490:	4480                	lw	s0,8(s1)
   14492:	0001                	nop
   14494:	0000                	unimp
   14496:	0000                	unimp
   14498:	4480                	lw	s0,8(s1)
   1449a:	0001                	nop
   1449c:	0000                	unimp
   1449e:	0000                	unimp
   144a0:	4490                	lw	a2,8(s1)
   144a2:	0001                	nop
   144a4:	0000                	unimp
   144a6:	0000                	unimp
   144a8:	4490                	lw	a2,8(s1)
   144aa:	0001                	nop
   144ac:	0000                	unimp
   144ae:	0000                	unimp
   144b0:	44a0                	lw	s0,72(s1)
   144b2:	0001                	nop
   144b4:	0000                	unimp
   144b6:	0000                	unimp
   144b8:	44a0                	lw	s0,72(s1)
   144ba:	0001                	nop
   144bc:	0000                	unimp
   144be:	0000                	unimp
   144c0:	44b0                	lw	a2,72(s1)
   144c2:	0001                	nop
   144c4:	0000                	unimp
   144c6:	0000                	unimp
   144c8:	44b0                	lw	a2,72(s1)
   144ca:	0001                	nop
   144cc:	0000                	unimp
   144ce:	0000                	unimp
   144d0:	44c0                	lw	s0,12(s1)
   144d2:	0001                	nop
   144d4:	0000                	unimp
   144d6:	0000                	unimp
   144d8:	44c0                	lw	s0,12(s1)
   144da:	0001                	nop
   144dc:	0000                	unimp
   144de:	0000                	unimp
   144e0:	44d0                	lw	a2,12(s1)
   144e2:	0001                	nop
   144e4:	0000                	unimp
   144e6:	0000                	unimp
   144e8:	44d0                	lw	a2,12(s1)
   144ea:	0001                	nop
   144ec:	0000                	unimp
   144ee:	0000                	unimp
   144f0:	44e0                	lw	s0,76(s1)
   144f2:	0001                	nop
   144f4:	0000                	unimp
   144f6:	0000                	unimp
   144f8:	44e0                	lw	s0,76(s1)
   144fa:	0001                	nop
   144fc:	0000                	unimp
   144fe:	0000                	unimp
   14500:	44f0                	lw	a2,76(s1)
   14502:	0001                	nop
   14504:	0000                	unimp
   14506:	0000                	unimp
   14508:	44f0                	lw	a2,76(s1)
   1450a:	0001                	nop
   1450c:	0000                	unimp
   1450e:	0000                	unimp
   14510:	4500                	lw	s0,8(a0)
   14512:	0001                	nop
   14514:	0000                	unimp
   14516:	0000                	unimp
   14518:	4500                	lw	s0,8(a0)
   1451a:	0001                	nop
   1451c:	0000                	unimp
   1451e:	0000                	unimp
   14520:	4510                	lw	a2,8(a0)
   14522:	0001                	nop
   14524:	0000                	unimp
   14526:	0000                	unimp
   14528:	4510                	lw	a2,8(a0)
   1452a:	0001                	nop
   1452c:	0000                	unimp
   1452e:	0000                	unimp
   14530:	4520                	lw	s0,72(a0)
   14532:	0001                	nop
   14534:	0000                	unimp
   14536:	0000                	unimp
   14538:	4520                	lw	s0,72(a0)
   1453a:	0001                	nop
   1453c:	0000                	unimp
   1453e:	0000                	unimp
   14540:	4530                	lw	a2,72(a0)
   14542:	0001                	nop
   14544:	0000                	unimp
   14546:	0000                	unimp
   14548:	4530                	lw	a2,72(a0)
   1454a:	0001                	nop
   1454c:	0000                	unimp
   1454e:	0000                	unimp
   14550:	4540                	lw	s0,12(a0)
   14552:	0001                	nop
   14554:	0000                	unimp
   14556:	0000                	unimp
   14558:	4540                	lw	s0,12(a0)
   1455a:	0001                	nop
   1455c:	0000                	unimp
   1455e:	0000                	unimp
   14560:	4550                	lw	a2,12(a0)
   14562:	0001                	nop
   14564:	0000                	unimp
   14566:	0000                	unimp
   14568:	4550                	lw	a2,12(a0)
   1456a:	0001                	nop
   1456c:	0000                	unimp
   1456e:	0000                	unimp
   14570:	4560                	lw	s0,76(a0)
   14572:	0001                	nop
   14574:	0000                	unimp
   14576:	0000                	unimp
   14578:	4560                	lw	s0,76(a0)
   1457a:	0001                	nop
   1457c:	0000                	unimp
   1457e:	0000                	unimp
   14580:	4570                	lw	a2,76(a0)
   14582:	0001                	nop
   14584:	0000                	unimp
   14586:	0000                	unimp
   14588:	4570                	lw	a2,76(a0)
   1458a:	0001                	nop
   1458c:	0000                	unimp
   1458e:	0000                	unimp
   14590:	4580                	lw	s0,8(a1)
   14592:	0001                	nop
   14594:	0000                	unimp
   14596:	0000                	unimp
   14598:	4580                	lw	s0,8(a1)
   1459a:	0001                	nop
   1459c:	0000                	unimp
   1459e:	0000                	unimp
   145a0:	4590                	lw	a2,8(a1)
   145a2:	0001                	nop
   145a4:	0000                	unimp
   145a6:	0000                	unimp
   145a8:	4590                	lw	a2,8(a1)
   145aa:	0001                	nop
   145ac:	0000                	unimp
   145ae:	0000                	unimp
   145b0:	45a0                	lw	s0,72(a1)
   145b2:	0001                	nop
   145b4:	0000                	unimp
   145b6:	0000                	unimp
   145b8:	45a0                	lw	s0,72(a1)
   145ba:	0001                	nop
   145bc:	0000                	unimp
   145be:	0000                	unimp
   145c0:	45b0                	lw	a2,72(a1)
   145c2:	0001                	nop
   145c4:	0000                	unimp
   145c6:	0000                	unimp
   145c8:	45b0                	lw	a2,72(a1)
   145ca:	0001                	nop
   145cc:	0000                	unimp
   145ce:	0000                	unimp
   145d0:	45c0                	lw	s0,12(a1)
   145d2:	0001                	nop
   145d4:	0000                	unimp
   145d6:	0000                	unimp
   145d8:	45c0                	lw	s0,12(a1)
   145da:	0001                	nop
   145dc:	0000                	unimp
   145de:	0000                	unimp
   145e0:	45d0                	lw	a2,12(a1)
   145e2:	0001                	nop
   145e4:	0000                	unimp
   145e6:	0000                	unimp
   145e8:	45d0                	lw	a2,12(a1)
   145ea:	0001                	nop
   145ec:	0000                	unimp
   145ee:	0000                	unimp
   145f0:	45e0                	lw	s0,76(a1)
   145f2:	0001                	nop
   145f4:	0000                	unimp
   145f6:	0000                	unimp
   145f8:	45e0                	lw	s0,76(a1)
   145fa:	0001                	nop
   145fc:	0000                	unimp
   145fe:	0000                	unimp
   14600:	45f0                	lw	a2,76(a1)
   14602:	0001                	nop
   14604:	0000                	unimp
   14606:	0000                	unimp
   14608:	45f0                	lw	a2,76(a1)
   1460a:	0001                	nop
   1460c:	0000                	unimp
   1460e:	0000                	unimp
   14610:	4600                	lw	s0,8(a2)
   14612:	0001                	nop
   14614:	0000                	unimp
   14616:	0000                	unimp
   14618:	4600                	lw	s0,8(a2)
   1461a:	0001                	nop
   1461c:	0000                	unimp
   1461e:	0000                	unimp
   14620:	4610                	lw	a2,8(a2)
   14622:	0001                	nop
   14624:	0000                	unimp
   14626:	0000                	unimp
   14628:	4610                	lw	a2,8(a2)
   1462a:	0001                	nop
   1462c:	0000                	unimp
   1462e:	0000                	unimp
   14630:	4620                	lw	s0,72(a2)
   14632:	0001                	nop
   14634:	0000                	unimp
   14636:	0000                	unimp
   14638:	4620                	lw	s0,72(a2)
   1463a:	0001                	nop
   1463c:	0000                	unimp
   1463e:	0000                	unimp
   14640:	4630                	lw	a2,72(a2)
   14642:	0001                	nop
   14644:	0000                	unimp
   14646:	0000                	unimp
   14648:	4630                	lw	a2,72(a2)
   1464a:	0001                	nop
   1464c:	0000                	unimp
   1464e:	0000                	unimp
   14650:	4640                	lw	s0,12(a2)
   14652:	0001                	nop
   14654:	0000                	unimp
   14656:	0000                	unimp
   14658:	4640                	lw	s0,12(a2)
   1465a:	0001                	nop
   1465c:	0000                	unimp
   1465e:	0000                	unimp
   14660:	4650                	lw	a2,12(a2)
   14662:	0001                	nop
   14664:	0000                	unimp
   14666:	0000                	unimp
   14668:	4650                	lw	a2,12(a2)
   1466a:	0001                	nop
   1466c:	0000                	unimp
   1466e:	0000                	unimp
   14670:	4660                	lw	s0,76(a2)
   14672:	0001                	nop
   14674:	0000                	unimp
   14676:	0000                	unimp
   14678:	4660                	lw	s0,76(a2)
   1467a:	0001                	nop
   1467c:	0000                	unimp
   1467e:	0000                	unimp
   14680:	4670                	lw	a2,76(a2)
   14682:	0001                	nop
   14684:	0000                	unimp
   14686:	0000                	unimp
   14688:	4670                	lw	a2,76(a2)
   1468a:	0001                	nop
   1468c:	0000                	unimp
	...

Disassembly of section .sdata:

0000000000014690 <__SDATA_BEGIN__>:
   14690:	7f7f                	.2byte	0x7f7f
   14692:	7f7f                	.2byte	0x7f7f
   14694:	7f7f                	.2byte	0x7f7f
   14696:	7f7f                	.2byte	0x7f7f
   14698:	feff                	.2byte	0xfeff
   1469a:	fefe                	sd	t6,376(sp)
   1469c:	fefe                	sd	t6,376(sp)
   1469e:	fefe                	sd	t6,376(sp)
   146a0:	8080                	.2byte	0x8080
   146a2:	8080                	.2byte	0x8080
   146a4:	8080                	.2byte	0x8080
   146a6:	8080                	.2byte	0x8080

00000000000146a8 <_global_impure_ptr>:
   146a8:	3738                	fld	fa4,104(a4)
   146aa:	0001                	nop
   146ac:	0000                	unimp
	...

00000000000146b0 <__dso_handle>:
	...

00000000000146b8 <_impure_ptr>:
   146b8:	3738                	fld	fa4,104(a4)
   146ba:	0001                	nop
   146bc:	0000                	unimp
	...

00000000000146c0 <__malloc_sbrk_base>:
   146c0:	ffff                	.2byte	0xffff
   146c2:	ffff                	.2byte	0xffff
   146c4:	ffff                	.2byte	0xffff
   146c6:	ffff                	.2byte	0xffff

00000000000146c8 <__malloc_trim_threshold>:
   146c8:	0000                	unimp
   146ca:	0002                	c.slli64	zero
   146cc:	0000                	unimp
	...

Disassembly of section .sbss:

00000000000146d0 <__malloc_max_total_mem>:
	...

00000000000146d8 <__malloc_max_sbrked_mem>:
	...

00000000000146e0 <__malloc_top_pad>:
	...

00000000000146e8 <errno>:
	...

00000000000146f0 <heap_end.0>:
	...

Disassembly of section .bss:

00000000000146f8 <completed.1>:
	...

0000000000014700 <object.0>:
	...

0000000000014730 <__malloc_current_mallinfo>:
	...

Disassembly of section .comment:

0000000000000000 <.comment>:
   0:	3a434347          	fmsub.d	ft6,ft6,ft4,ft7,rmm
   4:	2820                	fld	fs0,80(s0)
   6:	65653267          	.4byte	0x65653267
   a:	6535                	lui	a0,0xd
   c:	3334                	fld	fa3,96(a4)
   e:	3030                	fld	fa2,96(s0)
  10:	3831                	addw	a6,a6,-20
  12:	2029                	.2byte	0x2029
  14:	3231                	addw	tp,tp,-20 # ffffffffffffffec <__BSS_END__+0xfffffffffffeb894>
  16:	322e                	fld	ft4,232(sp)
  18:	302e                	fld	ft0,232(sp)
  1a:	4700                	lw	s0,8(a4)
  1c:	203a4343          	fmadd.s	ft6,fs4,ft3,ft4,rmm
  20:	4728                	lw	a0,72(a4)
  22:	554e                	lw	a0,240(sp)
  24:	2029                	.2byte	0x2029
  26:	3231                	addw	tp,tp,-20 # ffffffffffffffec <__BSS_END__+0xfffffffffffeb894>
  28:	322e                	fld	ft4,232(sp)
  2a:	302e                	fld	ft0,232(sp)
	...

Disassembly of section .riscv.attributes:

0000000000000000 <.riscv.attributes>:
   0:	3d41                	addw	s10,s10,-16
   2:	0000                	unimp
   4:	7200                	ld	s0,32(a2)
   6:	7369                	lui	t1,0xffffa
   8:	01007663          	bgeu	zero,a6,14 <exit-0x100d4>
   c:	00000033          	add	zero,zero,zero
  10:	1004                	add	s1,sp,32
  12:	7205                	lui	tp,0xfffe1
  14:	3676                	fld	fa2,376(sp)
  16:	6934                	ld	a3,80(a0)
  18:	7032                	.2byte	0x7032
  1a:	5f30                	lw	a2,120(a4)
  1c:	326d                	addw	tp,tp,-5 # fffffffffffe0ffb <__BSS_END__+0xfffffffffffcc8a3>
  1e:	3070                	fld	fa2,224(s0)
  20:	615f 7032 5f30      	.byte	0x5f, 0x61, 0x32, 0x70, 0x30, 0x5f
  26:	3266                	fld	ft4,120(sp)
  28:	3070                	fld	fa2,224(s0)
  2a:	645f 7032 5f30      	.byte	0x5f, 0x64, 0x32, 0x70, 0x30, 0x5f
  30:	30703263          	.4byte	0x30703263
  34:	7a5f 6d6d 6c75      	.byte	0x5f, 0x7a, 0x6d, 0x6d, 0x75, 0x6c
  3a:	7031                	c.lui	zero,0xfffec
  3c:	0030                	add	a2,sp,8
